Certificate:
    Data:
        Version: 3 (0x2)
        Serial Number: 3 (0x3)
        Signature Algorithm: sha1WithRSAEncryption
        Issuer: CN=Vermont example CA
        Validity
            Not Before: Mar  3 17:34:16 2009 GMT
            Not After : Feb 26 17:34:16 2029 GMT
        Subject: CN=Collector
        Subject Public Key Info:
            Public Key Algorithm: rsaEncryption
            RSA Public Key: (1024 bit)
                Modulus (1024 bit):
                    00:c8:a8:bc:ed:e1:4a:1c:e6:7c:db:f2:41:26:99:
                    0c:97:9f:52:4f:4f:ec:06:35:2f:32:ec:3c:88:13:
                    b2:d3:88:83:00:d9:5b:a2:58:be:25:3c:16:67:92:
                    61:1e:7e:3d:9a:7a:01:7d:ca:71:76:f3:96:74:80:
                    ec:78:3c:32:26:13:3a:d8:02:60:23:2d:b5:e5:88:
                    93:93:86:f9:cb:c4:f4:7f:40:53:14:2a:9a:65:f5:
                    9e:6f:7d:52:7f:ae:f2:b5:2f:9a:54:23:fc:fa:ed:
                    57:4a:23:c7:f9:87:e6:1f:e4:d3:47:45:c6:4a:2e:
                    94:38:ae:51:c8:06:7d:4f:05
                Exponent: 65537 (0x10001)
        X509v3 extensions:
            X509v3 Basic Constraints: 
                CA:FALSE
            X509v3 Subject Key Identifier: 
                48:B1:AF:25:4D:6C:97:56:64:84:2F:3F:F7:E6:CD:26:C9:95:0F:E9
            X509v3 Authority Key Identifier: 
                keyid:F9:79:19:E7:91:26:27:24:EC:78:65:8C:BB:CD:10:8F:A2:1A:DC:05

            X509v3 Subject Alternative Name: 
                DNS:collector.example.com
    Signature Algorithm: sha1WithRSAEncryption
        5e:63:1a:f2:ff:c0:dd:b6:3f:ef:f0:14:3d:6c:67:95:e1:ab:
        1a:ef:e8:16:fc:0d:f6:4f:2e:7d:05:2f:02:ff:27:d0:f0:0a:
        dd:fe:9a:f7:d3:bb:43:2c:9c:f6:50:6f:ec:00:03:b0:f4:86:
        77:3c:0b:86:fb:09:c7:76:75:0e:19:44:21:11:c7:1b:5b:d8:
        1c:59:ae:49:79:e0:5e:b1:6c:34:c9:b1:a1:61:70:6a:32:05:
        b8:c5:60:01:a5:ab:36:1b:4f:41:32:a0:90:e9:7c:ea:3c:45:
        0f:47:7a:c4:cb:b7:8a:5f:51:4f:d2:c8:14:e8:bc:e3:99:2b:
        3a:2a
-----BEGIN CERTIFICATE-----
MIICFjCCAX+gAwIBAgIBAzANBgkqhkiG9w0BAQUFADAdMRswGQYDVQQDExJWZXJt
b250IGV4YW1wbGUgQ0EwHhcNMDkwMzAzMTczNDE2WhcNMjkwMjI2MTczNDE2WjAU
MRIwEAYDVQQDEwlDb2xsZWN0b3IwgZ8wDQYJKoZIhvcNAQEBBQADgY0AMIGJAoGB
AMiovO3hShzmfNvyQSaZDJefUk9P7AY1LzLsPIgTstOIgwDZW6JYviU8FmeSYR5+
PZp6AX3KcXbzlnSA7Hg8MiYTOtgCYCMtteWIk5OG+cvE9H9AUxQqmmX1nm99Un+u
8rUvmlQj/PrtV0ojx/mH5h/k00dFxkoulDiuUcgGfU8FAgMBAAGjbzBtMAkGA1Ud
EwQCMAAwHQYDVR0OBBYEFEixryVNbJdWZIQvP/fmzSbJlQ/pMB8GA1UdIwQYMBaA
FPl5GeeRJick7HhljLvNEI+iGtwFMCAGA1UdEQQZMBeCFWNvbGxlY3Rvci5leGFt
cGxlLmNvbTANBgkqhkiG9w0BAQUFAAOBgQBeYxry/8Ddtj/v8BQ9bGeV4asa7+gW
/A32Ty59BS8C/yfQ8Ard/pr307tDLJz2UG/sAAOw9IZ3PAuG+wnHdnUOGUQhEccb
W9gcWa5JeeBesWw0ybGhYXBqMgW4xWABpas2G09BMqCQ6XzqPEUPR3rEy7eKX1FP
0sgU6LzjmSs6Kg==
-----END CERTIFICATE-----
