Certificate:
    Data:
        Version: 3 (0x2)
        Serial Number: 2 (0x2)
        Signature Algorithm: sha1WithRSAEncryption
        Issuer: CN=Vermont example CA
        Validity
            Not Before: Mar  3 17:32:37 2009 GMT
            Not After : Feb 26 17:32:37 2029 GMT
        Subject: CN=Exporter
        Subject Public Key Info:
            Public Key Algorithm: rsaEncryption
            RSA Public Key: (1024 bit)
                Modulus (1024 bit):
                    00:ce:5d:22:d0:1b:a0:6d:55:48:6c:7b:3e:51:0e:
                    4e:43:fd:20:0d:ee:f1:62:cc:bd:fd:1b:bf:d0:0b:
                    38:9b:a0:a7:d2:74:1e:36:77:d5:3b:82:4a:6a:09:
                    80:c4:13:25:4d:29:5d:b5:a8:39:8d:3e:27:36:c9:
                    8e:45:d1:84:b0:1d:ce:91:9b:75:dd:b6:55:a9:f6:
                    ec:bd:d5:70:b8:c8:63:c9:37:50:e3:2e:89:92:95:
                    7f:eb:5e:54:d3:6f:67:7a:12:f4:12:2d:b5:95:0d:
                    d5:7d:82:33:88:f8:af:40:f8:63:10:c4:37:ae:f8:
                    29:39:00:3a:4e:57:2c:0c:25
                Exponent: 65537 (0x10001)
        X509v3 extensions:
            X509v3 Basic Constraints: 
                CA:FALSE
            X509v3 Subject Key Identifier: 
                8E:8A:F0:5D:3A:B5:49:95:8F:E4:66:CB:64:86:97:94:67:65:A6:4F
            X509v3 Authority Key Identifier: 
                keyid:F9:79:19:E7:91:26:27:24:EC:78:65:8C:BB:CD:10:8F:A2:1A:DC:05

            X509v3 Subject Alternative Name: 
                DNS:exporter.example.com
    Signature Algorithm: sha1WithRSAEncryption
        0d:a8:6e:94:38:87:ad:80:91:b7:5e:4f:1c:8a:09:2d:09:67:
        fe:ff:25:9e:a3:03:78:53:5a:da:ff:22:9c:e9:63:af:f2:e2:
        8e:04:23:92:d8:df:5b:40:0d:a5:2f:df:2b:7c:30:6e:34:88:
        bc:bc:b5:64:2e:3a:8a:3b:c4:77:9f:3e:a0:a8:dc:e6:00:59:
        2e:48:2f:63:1d:ee:91:d1:9e:fc:70:5b:a2:79:70:64:e7:57:
        36:de:90:3f:1a:0f:83:0b:2a:e5:8a:06:7f:8f:b3:46:f4:f2:
        f9:1e:7f:bc:39:54:41:8f:94:1f:a8:43:ff:4e:a5:36:34:75:
        7b:45
-----BEGIN CERTIFICATE-----
MIICFDCCAX2gAwIBAgIBAjANBgkqhkiG9w0BAQUFADAdMRswGQYDVQQDExJWZXJt
b250IGV4YW1wbGUgQ0EwHhcNMDkwMzAzMTczMjM3WhcNMjkwMjI2MTczMjM3WjAT
MREwDwYDVQQDEwhFeHBvcnRlcjCBnzANBgkqhkiG9w0BAQEFAAOBjQAwgYkCgYEA
zl0i0BugbVVIbHs+UQ5OQ/0gDe7xYsy9/Ru/0As4m6Cn0nQeNnfVO4JKagmAxBMl
TSldtag5jT4nNsmORdGEsB3OkZt13bZVqfbsvdVwuMhjyTdQ4y6JkpV/615U029n
ehL0Ei21lQ3VfYIziPivQPhjEMQ3rvgpOQA6TlcsDCUCAwEAAaNuMGwwCQYDVR0T
BAIwADAdBgNVHQ4EFgQUjorwXTq1SZWP5GbLZIaXlGdlpk8wHwYDVR0jBBgwFoAU
+XkZ55EmJyTseGWMu80Qj6Ia3AUwHwYDVR0RBBgwFoIUZXhwb3J0ZXIuZXhhbXBs
ZS5jb20wDQYJKoZIhvcNAQEFBQADgYEADahulDiHrYCRt15PHIoJLQln/v8lnqMD
eFNa2v8inOljr/LijgQjktjfW0ANpS/fK3wwbjSIvLy1ZC46ijvEd58+oKjc5gBZ
LkgvYx3ukdGe/HBbonlwZOdXNt6QPxoPgwsq5YoGf4+zRvTy+R5/vDlUQY+UH6hD
/06lNjR1e0U=
-----END CERTIFICATE-----
