	.file	"QueueTest.cpp"
	.text
.Ltext0:
	.align 2
	.p2align 4,,15
.globl _ZN9QueueTest8pushFuncEPv
	.type	_ZN9QueueTest8pushFuncEPv, @function
_ZN9QueueTest8pushFuncEPv:
.LFB1210:
	.file 1 "/home/simon/da/lockfree/src/tests/component/QueueTest.cpp"
	.loc 1 113 0
	.cfi_startproc
	.cfi_personality 0x0,__gxx_personality_v0
.LVL0:
	pushl	%ebp
.LCFI0:
	.cfi_def_cfa_offset 8
	movl	%esp, %ebp
	.cfi_offset 5, -8
.LCFI1:
	.cfi_def_cfa_register 5
	pushl	%edi
	pushl	%esi
	pushl	%ebx
	subl	$12, %esp
	.loc 1 113 0
	movl	8(%ebp), %edi
	.cfi_offset 3, -20
	.cfi_offset 6, -16
	.cfi_offset 7, -12
.LBB1204:
	.loc 1 115 0
	movl	8(%edi), %esi
.LVL1:
.LBB1205:
	.loc 1 117 0
	testl	%esi, %esi
	je	.L2
.LVL2:
	movl	$1, %ebx
.LVL3:
	.p2align 4,,7
	.p2align 3
.L3:
	.loc 1 118 0
	movl	96(%edi), %eax
	pushl	%edx
	pushl	%edx
	movl	(%eax), %edx
	pushl	%ebx
	.loc 1 117 0
	incl	%ebx
	.loc 1 118 0
	pushl	%eax
	.cfi_escape 0x2e,0x10
	call	*8(%edx)
	.loc 1 117 0
	addl	$16, %esp
	cmpl	%ebx, %esi
	jae	.L3
.L2:
.LBE1205:
.LBE1204:
	.loc 1 123 0
	leal	-12(%ebp), %esp
	xorl	%eax, %eax
	popl	%ebx
.LVL4:
	popl	%esi
.LVL5:
	popl	%edi
.LVL6:
	popl	%ebp
	ret
	.cfi_endproc
.LFE1210:
	.size	_ZN9QueueTest8pushFuncEPv, .-_ZN9QueueTest8pushFuncEPv
	.section	.text._ZN9BaseQueueIjED1Ev,"axG",@progbits,_ZN9BaseQueueIjED1Ev,comdat
	.align 2
	.p2align 4,,15
	.weak	_ZN9BaseQueueIjED1Ev
	.type	_ZN9BaseQueueIjED1Ev, @function
_ZN9BaseQueueIjED1Ev:
.LFB1224:
	.file 2 "/home/simon/da/lockfree/src/common/BaseQueue.h"
	.loc 2 23 0
	.cfi_startproc
	.cfi_personality 0x0,__gxx_personality_v0
.LVL7:
	pushl	%ebp
.LCFI2:
	.cfi_def_cfa_offset 8
	movl	%esp, %ebp
	.cfi_offset 5, -8
.LCFI3:
	.cfi_def_cfa_register 5
	.loc 2 23 0
	movl	8(%ebp), %eax
	movl	$_ZTV9BaseQueueIjE+8, (%eax)
	popl	%ebp
	ret
	.cfi_endproc
.LFE1224:
	.size	_ZN9BaseQueueIjED1Ev, .-_ZN9BaseQueueIjED1Ev
	.section	.text._ZN19BaseConcurrentQueueIjED1Ev,"axG",@progbits,_ZN19BaseConcurrentQueueIjED1Ev,comdat
	.align 2
	.p2align 4,,15
	.weak	_ZN19BaseConcurrentQueueIjED1Ev
	.type	_ZN19BaseConcurrentQueueIjED1Ev, @function
_ZN19BaseConcurrentQueueIjED1Ev:
.LFB1240:
	.file 3 "/home/simon/da/lockfree/src/common/ConcurrentQueue.h"
	.loc 3 34 0
	.cfi_startproc
	.cfi_personality 0x0,__gxx_personality_v0
.LVL8:
	pushl	%ebp
.LCFI4:
	.cfi_def_cfa_offset 8
	movl	%esp, %ebp
	.cfi_offset 5, -8
.LCFI5:
	.cfi_def_cfa_register 5
	.loc 3 34 0
	movl	8(%ebp), %eax
	movl	$_ZTV19BaseConcurrentQueueIjE+8, (%eax)
	popl	%ebp
	ret
	.cfi_endproc
.LFE1240:
	.size	_ZN19BaseConcurrentQueueIjED1Ev, .-_ZN19BaseConcurrentQueueIjED1Ev
	.section	.text._ZN19BaseConcurrentQueueIjE5resetEv,"axG",@progbits,_ZN19BaseConcurrentQueueIjE5resetEv,comdat
	.align 2
	.p2align 4,,15
	.weak	_ZN19BaseConcurrentQueueIjE5resetEv
	.type	_ZN19BaseConcurrentQueueIjE5resetEv, @function
_ZN19BaseConcurrentQueueIjE5resetEv:
.LFB1242:
	.loc 3 39 0
	.cfi_startproc
	.cfi_personality 0x0,__gxx_personality_v0
.LVL9:
	pushl	%ebp
.LCFI6:
	.cfi_def_cfa_offset 8
	movl	%esp, %ebp
	.cfi_offset 5, -8
.LCFI7:
	.cfi_def_cfa_register 5
	subl	$8, %esp
	.loc 3 39 0
	movl	8(%ebp), %eax
	movl	4(%eax), %eax
	movl	(%eax), %edx
	movl	%eax, 8(%ebp)
	movl	16(%edx), %eax
	leave
	.cfi_escape 0x2e,0x4
	jmp	*%eax
	.cfi_endproc
.LFE1242:
	.size	_ZN19BaseConcurrentQueueIjE5resetEv, .-_ZN19BaseConcurrentQueueIjE5resetEv
	.section	.text._ZN9BaseQueueIjE5resetEv,"axG",@progbits,_ZN9BaseQueueIjE5resetEv,comdat
	.align 2
	.p2align 4,,15
	.weak	_ZN9BaseQueueIjE5resetEv
	.type	_ZN9BaseQueueIjE5resetEv, @function
_ZN9BaseQueueIjE5resetEv:
.LFB1266:
	.loc 2 26 0
	.cfi_startproc
	.cfi_personality 0x0,__gxx_personality_v0
.LVL10:
	pushl	%ebp
.LCFI8:
	.cfi_def_cfa_offset 8
	movl	%esp, %ebp
	.cfi_offset 5, -8
.LCFI9:
	.cfi_def_cfa_register 5
	.loc 2 26 0
	popl	%ebp
	ret
	.cfi_endproc
.LFE1266:
	.size	_ZN9BaseQueueIjE5resetEv, .-_ZN9BaseQueueIjE5resetEv
	.section	.text._ZN18LockfreeMultiQueueIjE5resetEv,"axG",@progbits,_ZN18LockfreeMultiQueueIjE5resetEv,comdat
	.align 2
	.p2align 4,,15
	.weak	_ZN18LockfreeMultiQueueIjE5resetEv
	.type	_ZN18LockfreeMultiQueueIjE5resetEv, @function
_ZN18LockfreeMultiQueueIjE5resetEv:
.LFB1430:
	.file 4 "/home/simon/da/lockfree/src/common/LockfreeMultiQueue.h"
	.loc 4 128 0
	.cfi_startproc
	.cfi_personality 0x0,__gxx_personality_v0
.LVL11:
	pushl	%ebp
.LCFI10:
	.cfi_def_cfa_offset 8
	movl	%esp, %ebp
	.cfi_offset 5, -8
.LCFI11:
	.cfi_def_cfa_register 5
	pushl	%esi
	pushl	%ebx
	.loc 4 128 0
	movl	8(%ebp), %esi
	.cfi_offset 3, -16
	.cfi_offset 6, -12
.LBB1206:
.LBB1207:
	.loc 4 129 0
	movl	20(%esi), %ecx
	testl	%ecx, %ecx
	je	.L16
.LVL12:
	.loc 4 130 0
	movl	24(%esi), %ebx
	xorl	%edx, %edx
	xorl	%eax, %eax
.LVL13:
	.p2align 4,,7
	.p2align 3
.L17:
	.loc 4 129 0
	incl	%eax
	.loc 4 130 0
	movl	$0, (%ebx,%edx,8)
	movl	$0, 4(%ebx,%edx,8)
	.loc 4 129 0
	cmpl	%ecx, %eax
	movl	%eax, %edx
	jb	.L17
.L16:
.LBE1207:
	.loc 4 132 0
	movl	$0, 12(%esi)
	movl	$0, 16(%esi)
	movl	12(%esi), %eax
.LVL14:
	movl	16(%esi), %edx
	movl	%eax, 4(%esi)
	movl	%edx, 8(%esi)
.LBE1206:
	.loc 4 133 0
	popl	%ebx
	popl	%esi
.LVL15:
	popl	%ebp
	ret
	.cfi_endproc
.LFE1430:
	.size	_ZN18LockfreeMultiQueueIjE5resetEv, .-_ZN18LockfreeMultiQueueIjE5resetEv
	.section	.text._ZN32LockfreeSingleQueueCacheOptLocalIjE4pushEj,"axG",@progbits,_ZN32LockfreeSingleQueueCacheOptLocalIjE4pushEj,comdat
	.align 2
	.p2align 4,,15
	.weak	_ZN32LockfreeSingleQueueCacheOptLocalIjE4pushEj
	.type	_ZN32LockfreeSingleQueueCacheOptLocalIjE4pushEj, @function
_ZN32LockfreeSingleQueueCacheOptLocalIjE4pushEj:
.LFB1435:
	.file 5 "/home/simon/da/lockfree/src/common/LockfreeSingleQueue.h"
	.loc 5 228 0
	.cfi_startproc
	.cfi_personality 0x0,__gxx_personality_v0
.LVL16:
	pushl	%ebp
.LCFI12:
	.cfi_def_cfa_offset 8
.LBB1208:
.LBB1210:
.LBB1211:
	.loc 5 278 0
	xorl	%edx, %edx
.LBE1211:
.LBE1210:
.LBE1208:
	.loc 5 228 0
	movl	%esp, %ebp
	.cfi_offset 5, -8
.LCFI13:
	.cfi_def_cfa_register 5
	pushl	%edi
	pushl	%esi
	pushl	%ebx
	.loc 5 228 0
	movl	8(%ebp), %ecx
.LBB1213:
	.loc 5 229 0
	movl	200(%ecx), %ebx
	.cfi_offset 3, -20
	.cfi_offset 6, -16
	.cfi_offset 7, -12
	.loc 5 231 0
	movl	196(%ecx), %esi
.LBB1209:
.LBB1212:
	.loc 5 278 0
	leal	1(%ebx), %eax
	divl	260(%ecx)
.LBE1212:
.LBE1209:
	.loc 5 231 0
	cmpl	%edx, %esi
	je	.L25
.LVL17:
.L21:
	.loc 5 237 0
	movl	264(%ecx), %eax
	movl	12(%ebp), %esi
	movl	%esi, (%eax,%ebx,4)
	.loc 5 238 0
	movl	%edx, 200(%ecx)
	.loc 5 240 0
	movl	%edx, 72(%ecx)
	movb	$1, %al
.L23:
.LBE1213:
	.loc 5 243 0
	popl	%ebx
	popl	%esi
	popl	%edi
	popl	%ebp
	ret
.LVL18:
	.p2align 4,,7
	.p2align 3
.L25:
.LBB1214:
	.loc 5 232 0
	movl	68(%ecx), %edi
	xorl	%eax, %eax
	cmpl	%edi, %esi
	je	.L23
	.loc 5 234 0
	movl	68(%ecx), %eax
	movl	%eax, 196(%ecx)
	jmp	.L21
.LBE1214:
	.cfi_endproc
.LFE1435:
	.size	_ZN32LockfreeSingleQueueCacheOptLocalIjE4pushEj, .-_ZN32LockfreeSingleQueueCacheOptLocalIjE4pushEj
	.section	.text._ZN32LockfreeSingleQueueCacheOptLocalIjE3popEPj,"axG",@progbits,_ZN32LockfreeSingleQueueCacheOptLocalIjE3popEPj,comdat
	.align 2
	.p2align 4,,15
	.weak	_ZN32LockfreeSingleQueueCacheOptLocalIjE3popEPj
	.type	_ZN32LockfreeSingleQueueCacheOptLocalIjE3popEPj, @function
_ZN32LockfreeSingleQueueCacheOptLocalIjE3popEPj:
.LFB1436:
	.loc 5 250 0
	.cfi_startproc
	.cfi_personality 0x0,__gxx_personality_v0
.LVL19:
	pushl	%ebp
.LCFI14:
	.cfi_def_cfa_offset 8
	movl	%esp, %ebp
	.cfi_offset 5, -8
.LCFI15:
	.cfi_def_cfa_register 5
	pushl	%ebx
	.loc 5 250 0
	movl	8(%ebp), %ecx
	.loc 5 251 0
	movl	136(%ecx), %edx
	cmpl	132(%ecx), %edx
	je	.L31
	.cfi_offset 3, -12
.LVL20:
.L27:
	.loc 5 257 0
	movl	264(%ecx), %eax
	movl	(%eax,%edx,4), %edx
	movl	12(%ebp), %eax
	movl	%edx, (%eax)
.LBB1215:
.LBB1216:
	.loc 5 278 0
	xorl	%edx, %edx
	movl	136(%ecx), %eax
	incl	%eax
	divl	260(%ecx)
.LBE1216:
.LBE1215:
	.loc 5 258 0
	movl	%edx, 136(%ecx)
	.loc 5 260 0
	movl	%edx, 68(%ecx)
	movb	$1, %al
.L29:
	.loc 5 263 0
	popl	%ebx
	popl	%ebp
	ret
.LVL21:
	.p2align 4,,7
	.p2align 3
.L31:
	.loc 5 252 0
	movl	72(%ecx), %ebx
	xorl	%eax, %eax
	cmpl	%ebx, %edx
	je	.L29
	.loc 5 254 0
	movl	72(%ecx), %eax
	movl	%eax, 132(%ecx)
	jmp	.L27
	.cfi_endproc
.LFE1436:
	.size	_ZN32LockfreeSingleQueueCacheOptLocalIjE3popEPj, .-_ZN32LockfreeSingleQueueCacheOptLocalIjE3popEPj
	.section	.text._ZN24LockfreeSingleQueueBasicIjE4pushEj,"axG",@progbits,_ZN24LockfreeSingleQueueBasicIjE4pushEj,comdat
	.align 2
	.p2align 4,,15
	.weak	_ZN24LockfreeSingleQueueBasicIjE4pushEj
	.type	_ZN24LockfreeSingleQueueBasicIjE4pushEj, @function
_ZN24LockfreeSingleQueueBasicIjE4pushEj:
.LFB1441:
	.loc 5 156 0
	.cfi_startproc
	.cfi_personality 0x0,__gxx_personality_v0
.LVL22:
	pushl	%ebp
.LCFI16:
	.cfi_def_cfa_offset 8
	.loc 5 157 0
	xorl	%edx, %edx
	.loc 5 156 0
	movl	%esp, %ebp
	.cfi_offset 5, -8
.LCFI17:
	.cfi_def_cfa_register 5
	pushl	%ebx
	.loc 5 156 0
	movl	8(%ebp), %ecx
	.loc 5 157 0
	movl	12(%ecx), %ebx
	.cfi_offset 3, -12
	leal	1(%ebx), %eax
	divl	4(%ecx)
	xorl	%eax, %eax
	cmpl	%edx, 16(%ecx)
	je	.L34
.LVL23:
	.loc 5 160 0
	movl	8(%ecx), %eax
	movl	12(%ebp), %edx
	movl	%edx, (%eax,%ebx,4)
	.loc 5 161 0
	xorl	%edx, %edx
	movl	12(%ecx), %eax
	incl	%eax
	divl	4(%ecx)
	movl	%edx, 12(%ecx)
	movb	$1, %al
.L34:
	.loc 5 164 0
	popl	%ebx
	popl	%ebp
	ret
	.cfi_endproc
.LFE1441:
	.size	_ZN24LockfreeSingleQueueBasicIjE4pushEj, .-_ZN24LockfreeSingleQueueBasicIjE4pushEj
	.section	.text._ZN24LockfreeSingleQueueBasicIjE3popEPj,"axG",@progbits,_ZN24LockfreeSingleQueueBasicIjE3popEPj,comdat
	.align 2
	.p2align 4,,15
	.weak	_ZN24LockfreeSingleQueueBasicIjE3popEPj
	.type	_ZN24LockfreeSingleQueueBasicIjE3popEPj, @function
_ZN24LockfreeSingleQueueBasicIjE3popEPj:
.LFB1442:
	.loc 5 171 0
	.cfi_startproc
	.cfi_personality 0x0,__gxx_personality_v0
.LVL24:
	pushl	%ebp
.LCFI18:
	.cfi_def_cfa_offset 8
	.loc 5 172 0
	xorl	%eax, %eax
	.loc 5 171 0
	movl	%esp, %ebp
	.cfi_offset 5, -8
.LCFI19:
	.cfi_def_cfa_register 5
	.loc 5 171 0
	movl	8(%ebp), %ecx
	.loc 5 172 0
	movl	16(%ecx), %edx
	cmpl	12(%ecx), %edx
	je	.L38
.LVL25:
	.loc 5 175 0
	movl	8(%ecx), %eax
	movl	(%eax,%edx,4), %edx
	movl	12(%ebp), %eax
	movl	%edx, (%eax)
	.loc 5 176 0
	xorl	%edx, %edx
	movl	16(%ecx), %eax
	incl	%eax
	divl	4(%ecx)
	movl	%edx, 16(%ecx)
	movb	$1, %al
.L38:
	.loc 5 179 0
	popl	%ebp
	ret
	.cfi_endproc
.LFE1442:
	.size	_ZN24LockfreeSingleQueueBasicIjE3popEPj, .-_ZN24LockfreeSingleQueueBasicIjE3popEPj
	.section	.text._ZN27LockfreeSingleQueueCacheOptIjE4pushEj,"axG",@progbits,_ZN27LockfreeSingleQueueCacheOptIjE4pushEj,comdat
	.align 2
	.p2align 4,,15
	.weak	_ZN27LockfreeSingleQueueCacheOptIjE4pushEj
	.type	_ZN27LockfreeSingleQueueCacheOptIjE4pushEj, @function
_ZN27LockfreeSingleQueueCacheOptIjE4pushEj:
.LFB1447:
	.loc 5 68 0
	.cfi_startproc
	.cfi_personality 0x0,__gxx_personality_v0
.LVL26:
	pushl	%ebp
.LCFI20:
	.cfi_def_cfa_offset 8
.LBB1217:
.LBB1221:
.LBB1223:
	.loc 5 117 0
	xorl	%edx, %edx
.LBE1223:
.LBE1221:
.LBE1217:
	.loc 5 68 0
	movl	%esp, %ebp
	.cfi_offset 5, -8
.LCFI21:
	.cfi_def_cfa_register 5
	pushl	%edi
	pushl	%esi
	pushl	%ebx
	subl	$8, %esp
	.loc 5 68 0
	movl	8(%ebp), %ecx
.LBB1226:
	.loc 5 69 0
	movl	24(%ecx), %esi
	.cfi_offset 3, -20
	.cfi_offset 6, -16
	.cfi_offset 7, -12
.LBB1220:
.LBB1224:
	.loc 5 117 0
	movl	28(%ecx), %edi
.LBE1224:
.LBE1220:
	.loc 5 69 0
	movl	(%esi), %ebx
.LBB1219:
.LBB1222:
	.loc 5 117 0
	leal	1(%ebx), %eax
	divl	(%edi)
.LBE1222:
.LBE1219:
	.loc 5 71 0
	movl	20(%ecx), %eax
.LBB1218:
.LBB1225:
	.loc 5 117 0
	movl	%edx, -20(%ebp)
.LBE1225:
.LBE1218:
	.loc 5 71 0
	movl	(%eax), %edi
	cmpl	%edx, %edi
	je	.L45
.LVL27:
.L41:
	.loc 5 77 0
	movl	32(%ecx), %eax
	movl	12(%ebp), %edi
	movl	%edi, (%eax,%ebx,4)
	.loc 5 78 0
	movl	-20(%ebp), %eax
	movl	%eax, (%esi)
	.loc 5 80 0
	movl	8(%ecx), %eax
	movb	$1, %bl
	movl	%edx, (%eax)
.L43:
.LBE1226:
	.loc 5 83 0
	popl	%ecx
.LVL28:
	movb	%bl, %al
	popl	%ebx
	popl	%ebx
	popl	%esi
	popl	%edi
	popl	%ebp
	ret
.LVL29:
	.p2align 4,,7
	.p2align 3
.L45:
.LBB1227:
	.loc 5 72 0
	movl	4(%ecx), %ebx
	movl	(%ebx), %ebx
	movl	%ebx, -16(%ebp)
	xorl	%ebx, %ebx
	cmpl	-16(%ebp), %edi
	je	.L43
	.loc 5 74 0
	movl	-16(%ebp), %edx
	movl	%edx, (%eax)
	movl	-20(%ebp), %edx
	movl	(%esi), %ebx
	jmp	.L41
.LBE1227:
	.cfi_endproc
.LFE1447:
	.size	_ZN27LockfreeSingleQueueCacheOptIjE4pushEj, .-_ZN27LockfreeSingleQueueCacheOptIjE4pushEj
	.section	.text._ZN27LockfreeSingleQueueCacheOptIjE3popEPj,"axG",@progbits,_ZN27LockfreeSingleQueueCacheOptIjE3popEPj,comdat
	.align 2
	.p2align 4,,15
	.weak	_ZN27LockfreeSingleQueueCacheOptIjE3popEPj
	.type	_ZN27LockfreeSingleQueueCacheOptIjE3popEPj, @function
_ZN27LockfreeSingleQueueCacheOptIjE3popEPj:
.LFB1448:
	.loc 5 90 0
	.cfi_startproc
	.cfi_personality 0x0,__gxx_personality_v0
.LVL30:
	pushl	%ebp
.LCFI22:
	.cfi_def_cfa_offset 8
	movl	%esp, %ebp
	.cfi_offset 5, -8
.LCFI23:
	.cfi_def_cfa_register 5
	pushl	%edi
	pushl	%esi
	pushl	%ebx
	.loc 5 90 0
	movl	8(%ebp), %ecx
	.loc 5 91 0
	movl	16(%ecx), %ebx
	.cfi_offset 3, -20
	.cfi_offset 6, -16
	.cfi_offset 7, -12
	movl	12(%ecx), %esi
	movl	(%ebx), %edx
	cmpl	(%esi), %edx
	je	.L51
.LVL31:
.L47:
	.loc 5 97 0
	movl	32(%ecx), %eax
.LBB1228:
.LBB1229:
	.loc 5 117 0
	movl	28(%ecx), %esi
.LBE1229:
.LBE1228:
	.loc 5 97 0
	movl	(%eax,%edx,4), %edx
	movl	12(%ebp), %eax
	movl	%edx, (%eax)
.LBB1231:
.LBB1230:
	.loc 5 117 0
	xorl	%edx, %edx
	movl	(%ebx), %eax
	incl	%eax
	divl	(%esi)
.LBE1230:
.LBE1231:
	.loc 5 100 0
	movl	4(%ecx), %eax
	.loc 5 98 0
	movl	%edx, (%ebx)
	.loc 5 100 0
	movl	%edx, (%eax)
	movb	$1, %al
.L49:
	.loc 5 103 0
	popl	%ebx
	popl	%esi
	popl	%edi
	popl	%ebp
	ret
.LVL32:
	.p2align 4,,7
	.p2align 3
.L51:
	.loc 5 92 0
	movl	8(%ecx), %eax
	movl	(%eax), %edi
	xorl	%eax, %eax
	cmpl	%edi, %edx
	je	.L49
	.loc 5 94 0
	movl	%edi, (%esi)
	movl	(%ebx), %edx
	jmp	.L47
	.cfi_endproc
.LFE1448:
	.size	_ZN27LockfreeSingleQueueCacheOptIjE3popEPj, .-_ZN27LockfreeSingleQueueCacheOptIjE3popEPj
	.section	.text._ZN27LockfreeSingleQueueCacheOptIjE5resetEv,"axG",@progbits,_ZN27LockfreeSingleQueueCacheOptIjE5resetEv,comdat
	.align 2
	.p2align 4,,15
	.weak	_ZN27LockfreeSingleQueueCacheOptIjE5resetEv
	.type	_ZN27LockfreeSingleQueueCacheOptIjE5resetEv, @function
_ZN27LockfreeSingleQueueCacheOptIjE5resetEv:
.LFB1449:
	.loc 5 109 0
	.cfi_startproc
	.cfi_personality 0x0,__gxx_personality_v0
.LVL33:
	pushl	%ebp
.LCFI24:
	.cfi_def_cfa_offset 8
	movl	%esp, %ebp
	.cfi_offset 5, -8
.LCFI25:
	.cfi_def_cfa_register 5
	.loc 5 109 0
	movl	8(%ebp), %eax
	.loc 5 110 0
	movl	4(%eax), %edx
	movl	8(%eax), %ecx
	movl	$0, (%ecx)
	movl	$0, (%edx)
	.loc 5 111 0
	movl	16(%eax), %ecx
	movl	12(%eax), %edx
	movl	$0, (%ecx)
	movl	$0, (%edx)
	.loc 5 112 0
	movl	20(%eax), %edx
	movl	24(%eax), %eax
	movl	$0, (%eax)
	movl	$0, (%edx)
	.loc 5 113 0
	popl	%ebp
	ret
	.cfi_endproc
.LFE1449:
	.size	_ZN27LockfreeSingleQueueCacheOptIjE5resetEv, .-_ZN27LockfreeSingleQueueCacheOptIjE5resetEv
	.section	.text._ZN19BaseConcurrentQueueIjE7restartEv,"axG",@progbits,_ZN19BaseConcurrentQueueIjE7restartEv,comdat
	.align 2
	.p2align 4,,15
	.weak	_ZN19BaseConcurrentQueueIjE7restartEv
	.type	_ZN19BaseConcurrentQueueIjE7restartEv, @function
_ZN19BaseConcurrentQueueIjE7restartEv:
.LFB1457:
	.loc 3 38 0
	.cfi_startproc
	.cfi_personality 0x0,__gxx_personality_v0
.LVL34:
	pushl	%ebp
.LCFI26:
	.cfi_def_cfa_offset 8
	movl	%esp, %ebp
	.cfi_offset 5, -8
.LCFI27:
	.cfi_def_cfa_register 5
	.loc 3 38 0
	popl	%ebp
	ret
	.cfi_endproc
.LFE1457:
	.size	_ZN19BaseConcurrentQueueIjE7restartEv, .-_ZN19BaseConcurrentQueueIjE7restartEv
	.section	.text._ZN15ConcurrentQueueIjE7restartEv,"axG",@progbits,_ZN15ConcurrentQueueIjE7restartEv,comdat
	.align 2
	.p2align 4,,15
	.weak	_ZN15ConcurrentQueueIjE7restartEv
	.type	_ZN15ConcurrentQueueIjE7restartEv, @function
_ZN15ConcurrentQueueIjE7restartEv:
.LFB1472:
	.loc 3 247 0
	.cfi_startproc
	.cfi_personality 0x0,__gxx_personality_v0
.LVL35:
	pushl	%ebp
.LCFI28:
	.cfi_def_cfa_offset 8
	movl	%esp, %ebp
	.cfi_offset 5, -8
.LCFI29:
	.cfi_def_cfa_register 5
	.loc 3 247 0
	movl	8(%ebp), %eax
.LBB1232:
.LBB1233:
	.file 6 "/home/simon/da/lockfree/src/common/TimeoutSemaphore.h"
	.loc 6 226 0
	movb	$0, 28(%eax)
.LBE1233:
.LBE1232:
.LBB1234:
.LBB1235:
	movb	$0, 64(%eax)
.LBE1235:
.LBE1234:
	.loc 3 251 0
	popl	%ebp
	ret
	.cfi_endproc
.LFE1472:
	.size	_ZN15ConcurrentQueueIjE7restartEv, .-_ZN15ConcurrentQueueIjE7restartEv
	.section	.rodata.str1.1,"aMS",@progbits,1
.LC0:
	.string	"pop failed in QueueTest.cpp\n"
.LC1:
	.string	"wrong number of pop calls"
	.section	.rodata.str1.4,"aMS",@progbits,1
	.align 4
.LC2:
	.string	"/home/simon/da/lockfree/src/tests/component/QueueTest.cpp"
	.text
	.align 2
	.p2align 4,,15
.globl _ZN9QueueTest7popFuncEPv
	.type	_ZN9QueueTest7popFuncEPv, @function
_ZN9QueueTest7popFuncEPv:
.LFB1211:
	.loc 1 125 0
	.cfi_startproc
	.cfi_personality 0x0,__gxx_personality_v0
.LVL36:
	pushl	%ebp
.LCFI30:
	.cfi_def_cfa_offset 8
	movl	%esp, %ebp
	.cfi_offset 5, -8
.LCFI31:
	.cfi_def_cfa_register 5
	pushl	%edi
	pushl	%esi
	pushl	%ebx
	subl	$28, %esp
	.loc 1 125 0
	movl	8(%ebp), %edi
	.cfi_offset 3, -20
	.cfi_offset 6, -16
	.cfi_offset 7, -12
.LBB1236:
	.loc 1 129 0
	movl	8(%edi), %eax
	movl	(%edi), %esi
.LVL37:
	imull	%eax, %esi
	.loc 1 131 0
	testl	%esi, %esi
	je	.L59
.LVL38:
	movl	$1, %ebx
.LVL39:
	jmp	.L61
	.p2align 4,,7
	.p2align 3
.L60:
	incl	%ebx
	cmpl	%ebx, %esi
	jb	.L64
.L61:
	.loc 1 132 0
	movl	96(%edi), %eax
	pushl	%edx
	pushl	%edx
	leal	-28(%ebp), %ecx
	movl	(%eax), %edx
	pushl	%ecx
	pushl	%eax
	.cfi_escape 0x2e,0x10
	call	*12(%edx)
	addl	$16, %esp
	testb	%al, %al
	jne	.L60
	.loc 1 131 0
	incl	%ebx
.LBB1237:
.LBB1238:
	.file 7 "/usr/include/bits/stdio2.h"
	.loc 7 105 0
	pushl	%eax
	pushl	%eax
	pushl	$.LC0
	pushl	$1
	call	__printf_chk
	addl	$16, %esp
.LBE1238:
.LBE1237:
	.loc 1 131 0
	cmpl	%ebx, %esi
	jae	.L61
.L64:
	.loc 1 138 0
	incl	%esi
.LVL40:
	cmpl	%ebx, %esi
	je	.L59
	.loc 1 139 0
	subl	$12, %esp
	pushl	$.LC1
	pushl	$_ZZN9QueueTest7popFuncEPvE8__func__
	pushl	$_ZZN9QueueTest7popFuncEPvE19__PRETTY_FUNCTION__
	pushl	$.LC2
	pushl	$139
	.cfi_escape 0x2e,0x20
	call	vermont_exception
	addl	$32, %esp
.LVL41:
.L59:
.LBE1236:
	.loc 1 142 0
	leal	-12(%ebp), %esp
	xorl	%eax, %eax
	popl	%ebx
.LVL42:
	popl	%esi
.LVL43:
	popl	%edi
.LVL44:
	popl	%ebp
	ret
	.cfi_endproc
.LFE1211:
	.size	_ZN9QueueTest7popFuncEPv, .-_ZN9QueueTest7popFuncEPv
	.align 2
	.p2align 4,,15
.globl _ZN9QueueTestD1Ev
	.type	_ZN9QueueTestD1Ev, @function
_ZN9QueueTestD1Ev:
.LFB1208:
	.loc 1 66 0
	.cfi_startproc
	.cfi_personality 0x0,__gxx_personality_v0
.LVL45:
	pushl	%ebp
.LCFI32:
	.cfi_def_cfa_offset 8
	movl	%esp, %ebp
	.cfi_offset 5, -8
.LCFI33:
	.cfi_def_cfa_register 5
	pushl	%esi
	pushl	%ebx
	.loc 1 66 0
	movl	8(%ebp), %esi
	.cfi_offset 3, -16
	.cfi_offset 6, -12
.LBB1239:
	.loc 1 67 0
	movl	(%esi), %eax
	testl	%eax, %eax
	je	.L66
.LVL46:
	xorl	%ebx, %ebx
.LVL47:
	.p2align 4,,7
	.p2align 3
.L68:
	.loc 1 68 0
	movl	12(%esi,%ebx,4), %eax
	testl	%eax, %eax
	je	.L67
	subl	$12, %esp
	pushl	%eax
	.cfi_escape 0x2e,0x10
	call	_ZdlPv
	addl	$16, %esp
.L67:
	.loc 1 67 0
	incl	%ebx
	movl	(%esi), %eax
	cmpl	%ebx, %eax
	ja	.L68
.L66:
.LBE1239:
	.loc 1 70 0
	movl	92(%esi), %eax
	testl	%eax, %eax
	je	.L69
	subl	$12, %esp
	pushl	%eax
	call	_ZdlPv
	addl	$16, %esp
.L69:
	.loc 1 72 0
	movl	96(%esi), %eax
	testl	%eax, %eax
	je	.L71
	movl	(%eax), %edx
	movl	%eax, 8(%ebp)
	movl	4(%edx), %eax
	.loc 1 73 0
	leal	-8(%ebp), %esp
	popl	%ebx
.LVL48:
	popl	%esi
.LVL49:
	popl	%ebp
	.loc 1 72 0
	.cfi_escape 0x2e,0x4
	jmp	*%eax
.LVL50:
	.p2align 4,,7
	.p2align 3
.L71:
	.loc 1 73 0
	leal	-8(%ebp), %esp
	popl	%ebx
.LVL51:
	popl	%esi
.LVL52:
	popl	%ebp
	ret
	.cfi_endproc
.LFE1208:
	.size	_ZN9QueueTestD1Ev, .-_ZN9QueueTestD1Ev
	.align 2
	.p2align 4,,15
.globl _ZN9QueueTestD2Ev
	.type	_ZN9QueueTestD2Ev, @function
_ZN9QueueTestD2Ev:
.LFB1207:
	.loc 1 66 0
	.cfi_startproc
	.cfi_personality 0x0,__gxx_personality_v0
.LVL53:
	pushl	%ebp
.LCFI34:
	.cfi_def_cfa_offset 8
	movl	%esp, %ebp
	.cfi_offset 5, -8
.LCFI35:
	.cfi_def_cfa_register 5
	pushl	%esi
	pushl	%ebx
	.loc 1 66 0
	movl	8(%ebp), %esi
	.cfi_offset 3, -16
	.cfi_offset 6, -12
.LBB1240:
	.loc 1 67 0
	movl	(%esi), %eax
	testl	%eax, %eax
	je	.L74
.LVL54:
	xorl	%ebx, %ebx
.LVL55:
	.p2align 4,,7
	.p2align 3
.L76:
	.loc 1 68 0
	movl	12(%esi,%ebx,4), %eax
	testl	%eax, %eax
	je	.L75
	subl	$12, %esp
	pushl	%eax
	.cfi_escape 0x2e,0x10
	call	_ZdlPv
	addl	$16, %esp
.L75:
	.loc 1 67 0
	incl	%ebx
	movl	(%esi), %eax
	cmpl	%ebx, %eax
	ja	.L76
.L74:
.LBE1240:
	.loc 1 70 0
	movl	92(%esi), %eax
	testl	%eax, %eax
	je	.L77
	subl	$12, %esp
	pushl	%eax
	call	_ZdlPv
	addl	$16, %esp
.L77:
	.loc 1 72 0
	movl	96(%esi), %eax
	testl	%eax, %eax
	je	.L79
	movl	(%eax), %edx
	movl	%eax, 8(%ebp)
	movl	4(%edx), %eax
	.loc 1 73 0
	leal	-8(%ebp), %esp
	popl	%ebx
.LVL56:
	popl	%esi
.LVL57:
	popl	%ebp
	.loc 1 72 0
	.cfi_escape 0x2e,0x4
	jmp	*%eax
.LVL58:
	.p2align 4,,7
	.p2align 3
.L79:
	.loc 1 73 0
	leal	-8(%ebp), %esp
	popl	%ebx
.LVL59:
	popl	%esi
.LVL60:
	popl	%ebp
	ret
	.cfi_endproc
.LFE1207:
	.size	_ZN9QueueTestD2Ev, .-_ZN9QueueTestD2Ev
	.section	.text._ZN19BaseConcurrentQueueIjED0Ev,"axG",@progbits,_ZN19BaseConcurrentQueueIjED0Ev,comdat
	.align 2
	.p2align 4,,15
	.weak	_ZN19BaseConcurrentQueueIjED0Ev
	.type	_ZN19BaseConcurrentQueueIjED0Ev, @function
_ZN19BaseConcurrentQueueIjED0Ev:
.LFB1241:
	.loc 3 34 0
	.cfi_startproc
	.cfi_personality 0x0,__gxx_personality_v0
.LVL61:
	pushl	%ebp
.LCFI36:
	.cfi_def_cfa_offset 8
	movl	%esp, %ebp
	.cfi_offset 5, -8
.LCFI37:
	.cfi_def_cfa_register 5
	subl	$8, %esp
	.loc 3 34 0
	movl	8(%ebp), %eax
	movl	$_ZTV19BaseConcurrentQueueIjE+8, (%eax)
	leave
	.cfi_escape 0x2e,0x4
	jmp	_ZdlPv
	.cfi_endproc
.LFE1241:
	.size	_ZN19BaseConcurrentQueueIjED0Ev, .-_ZN19BaseConcurrentQueueIjED0Ev
	.section	.text._ZN9BaseQueueIjED0Ev,"axG",@progbits,_ZN9BaseQueueIjED0Ev,comdat
	.align 2
	.p2align 4,,15
	.weak	_ZN9BaseQueueIjED0Ev
	.type	_ZN9BaseQueueIjED0Ev, @function
_ZN9BaseQueueIjED0Ev:
.LFB1225:
	.loc 2 23 0
	.cfi_startproc
	.cfi_personality 0x0,__gxx_personality_v0
.LVL62:
	pushl	%ebp
.LCFI38:
	.cfi_def_cfa_offset 8
	movl	%esp, %ebp
	.cfi_offset 5, -8
.LCFI39:
	.cfi_def_cfa_register 5
	subl	$8, %esp
	.loc 2 23 0
	movl	8(%ebp), %eax
	movl	$_ZTV9BaseQueueIjE+8, (%eax)
	leave
	.cfi_escape 0x2e,0x4
	jmp	_ZdlPv
	.cfi_endproc
.LFE1225:
	.size	_ZN9BaseQueueIjED0Ev, .-_ZN9BaseQueueIjED0Ev
	.section	.text._ZNSt11_Deque_baseIjSaIjEED2Ev,"axG",@progbits,_ZNSt11_Deque_baseIjSaIjEED2Ev,comdat
	.align 2
	.p2align 4,,15
	.weak	_ZNSt11_Deque_baseIjSaIjEED2Ev
	.type	_ZNSt11_Deque_baseIjSaIjEED2Ev, @function
_ZNSt11_Deque_baseIjSaIjEED2Ev:
.LFB1308:
	.file 8 "/usr/include/c++/4.4/bits/stl_deque.h"
	.loc 8 471 0
	.cfi_startproc
	.cfi_personality 0x0,__gxx_personality_v0
.LVL63:
	pushl	%ebp
.LCFI40:
	.cfi_def_cfa_offset 8
	movl	%esp, %ebp
	.cfi_offset 5, -8
.LCFI41:
	.cfi_def_cfa_register 5
	pushl	%edi
	pushl	%esi
	pushl	%ebx
	subl	$12, %esp
	.loc 8 471 0
	movl	8(%ebp), %edi
	.cfi_offset 3, -20
	.cfi_offset 6, -16
	.cfi_offset 7, -12
	.loc 8 474 0
	movl	(%edi), %eax
	testl	%eax, %eax
	je	.L89
.LVL64:
	.loc 8 476 0
	movl	36(%edi), %esi
	movl	20(%edi), %ebx
.LVL65:
	addl	$4, %esi
.LBB1257:
.LBB1258:
	.loc 8 552 0
	cmpl	%ebx, %esi
	jbe	.L87
	.p2align 4,,7
	.p2align 3
.L90:
.LBB1259:
.LBB1260:
.LBB1261:
	.file 9 "/usr/include/c++/4.4/ext/new_allocator.h"
	.loc 9 95 0
	subl	$12, %esp
	movl	(%ebx), %ecx
.LBE1261:
.LBE1260:
.LBE1259:
	.loc 8 552 0
	addl	$4, %ebx
.LBB1264:
.LBB1263:
.LBB1262:
	.loc 9 95 0
	pushl	%ecx
	.cfi_escape 0x2e,0x10
	call	_ZdlPv
.LBE1262:
.LBE1263:
.LBE1264:
	.loc 8 552 0
	addl	$16, %esp
	cmpl	%ebx, %esi
	ja	.L90
	movl	(%edi), %eax
.L87:
.LBE1258:
.LBE1257:
.LBB1265:
.LBB1266:
.LBB1267:
	.loc 9 95 0
	movl	%eax, 8(%ebp)
.LBE1267:
.LBE1266:
.LBE1265:
	.loc 8 480 0
	leal	-12(%ebp), %esp
	popl	%ebx
.LVL66:
	popl	%esi
	popl	%edi
.LVL67:
	popl	%ebp
.LBB1270:
.LBB1269:
.LBB1268:
	.loc 9 95 0
	.cfi_escape 0x2e,0x4
	jmp	_ZdlPv
.LVL68:
	.p2align 4,,7
	.p2align 3
.L89:
.LBE1268:
.LBE1269:
.LBE1270:
	.loc 8 480 0
	leal	-12(%ebp), %esp
	popl	%ebx
	popl	%esi
	popl	%edi
.LVL69:
	popl	%ebp
	ret
	.cfi_endproc
.LFE1308:
	.size	_ZNSt11_Deque_baseIjSaIjEED2Ev, .-_ZNSt11_Deque_baseIjSaIjEED2Ev
	.section	.text._Z12addToCurTimeP8timespecl,"axG",@progbits,_Z12addToCurTimeP8timespecl,comdat
	.p2align 4,,15
	.weak	_Z12addToCurTimeP8timespecl
	.type	_Z12addToCurTimeP8timespecl, @function
_Z12addToCurTimeP8timespecl:
.LFB1134:
	.file 10 "/home/simon/da/lockfree/src/common/Time.h"
	.loc 10 44 0
	.cfi_startproc
	.cfi_personality 0x0,__gxx_personality_v0
.LVL70:
	pushl	%ebp
.LCFI42:
	.cfi_def_cfa_offset 8
	movl	%esp, %ebp
	.cfi_offset 5, -8
.LCFI43:
	.cfi_def_cfa_register 5
	pushl	%edi
	pushl	%esi
	pushl	%ebx
	subl	$36, %esp
.LBB1273:
	.loc 10 47 0
	leal	-32(%ebp), %eax
.LBE1273:
	.loc 10 44 0
	movl	12(%ebp), %esi
	.cfi_offset 3, -20
	.cfi_offset 6, -16
	.cfi_offset 7, -12
	movl	8(%ebp), %ebx
.LBB1274:
	.loc 10 47 0
	pushl	$0
	pushl	%eax
	.cfi_escape 0x2e,0x10
	call	gettimeofday
	.loc 10 50 0
	leal	(%esi,%esi,4), %eax
	leal	(%eax,%eax,4), %eax
	.loc 10 51 0
	addl	$16, %esp
	.loc 10 50 0
	leal	(%eax,%eax,4), %ecx
	movl	-28(%ebp), %eax
	leal	(%eax,%ecx,8), %ecx
	.loc 10 51 0
	cmpl	$999999, %ecx
	jle	.L96
.LVL71:
	.loc 10 53 0
	movl	%ecx, %eax
	movl	$1125899907, %edx
	imull	%edx
	movl	%ecx, %eax
	movl	-32(%ebp), %edi
	sarl	$31, %eax
	sarl	$18, %edx
	subl	%eax, %edx
	.loc 10 54 0
	movl	%edx, %eax
	.loc 10 53 0
	movl	%edx, %esi
.LVL72:
	.loc 10 54 0
	sall	$5, %eax
	.loc 10 53 0
	addl	%edi, %esi
	.loc 10 54 0
	subl	%edx, %eax
	movl	%eax, %edi
	sall	$6, %edi
	subl	%eax, %edi
	leal	(%edx,%edi,8), %eax
	sall	$6, %eax
	subl	%eax, %ecx
.L94:
	.loc 10 57 0
	leal	(%ecx,%ecx,4), %eax
	.loc 10 56 0
	movl	%esi, (%ebx)
	.loc 10 57 0
	leal	(%eax,%eax,4), %eax
	leal	(%eax,%eax,4), %eax
	sall	$3, %eax
	movl	%eax, 4(%ebx)
.LBE1274:
	.loc 10 58 0
	leal	-12(%ebp), %esp
	popl	%ebx
.LVL73:
	popl	%esi
	popl	%edi
	popl	%ebp
	ret
.LVL74:
	.p2align 4,,7
	.p2align 3
.L96:
.LBB1275:
	.loc 10 51 0
	movl	-32(%ebp), %esi
.LVL75:
	jmp	.L94
.LBE1275:
	.cfi_endproc
.LFE1134:
	.size	_Z12addToCurTimeP8timespecl, .-_Z12addToCurTimeP8timespecl
	.section	.rodata.str1.4
	.align 4
.LC3:
	.string	"given semaphore is not valid, failed to destroy it"
	.align 4
.LC4:
	.string	"/home/simon/da/lockfree/src/common/TimeoutSemaphore.h"
	.section	.text._ZN16TimeoutSemaphoreD0Ev,"axG",@progbits,_ZN16TimeoutSemaphoreD0Ev,comdat
	.align 2
	.p2align 4,,15
	.weak	_ZN16TimeoutSemaphoreD0Ev
	.type	_ZN16TimeoutSemaphoreD0Ev, @function
_ZN16TimeoutSemaphoreD0Ev:
.LFB1155:
	.loc 6 53 0
	.cfi_startproc
	.cfi_personality 0x0,__gxx_personality_v0
.LVL76:
	pushl	%ebp
.LCFI44:
	.cfi_def_cfa_offset 8
	movl	%esp, %ebp
	.cfi_offset 5, -8
.LCFI45:
	.cfi_def_cfa_register 5
	pushl	%ebx
	subl	$16, %esp
	.loc 6 53 0
	movl	8(%ebp), %ebx
	.cfi_offset 3, -12
.LBB1276:
	.loc 6 54 0
	movl	$_ZTV16TimeoutSemaphore+8, (%ebx)
.LBB1277:
	.loc 6 55 0
	movl	4(%ebx), %ecx
	pushl	%ecx
	.cfi_escape 0x2e,0x10
	call	sem_destroy
	.loc 6 56 0
	addl	$16, %esp
	testl	%eax, %eax
.LVL77:
	je	.L98
.LVL78:
	.loc 6 57 0
	subl	$12, %esp
	pushl	$.LC3
	pushl	$_ZZN16TimeoutSemaphoreD1EvE8__func__
	pushl	$_ZZN16TimeoutSemaphoreD1EvE19__PRETTY_FUNCTION__
	pushl	$.LC4
	pushl	$57
	.cfi_escape 0x2e,0x20
	call	vermont_exception
.LVL79:
	addl	$32, %esp
.LVL80:
.L98:
	.loc 6 59 0
	subl	$12, %esp
	movl	4(%ebx), %edx
	pushl	%edx
	.cfi_escape 0x2e,0x10
	call	_ZdlPv
.LVL81:
.LBE1277:
.LBE1276:
	.loc 6 60 0
	movl	%ebx, 8(%ebp)
	addl	$16, %esp
	movl	-4(%ebp), %ebx
.LVL82:
	leave
	.cfi_escape 0x2e,0x4
	jmp	_ZdlPv
	.cfi_endproc
.LFE1155:
	.size	_ZN16TimeoutSemaphoreD0Ev, .-_ZN16TimeoutSemaphoreD0Ev
	.section	.text._ZN16TimeoutSemaphoreD1Ev,"axG",@progbits,_ZN16TimeoutSemaphoreD1Ev,comdat
	.align 2
	.p2align 4,,15
	.weak	_ZN16TimeoutSemaphoreD1Ev
	.type	_ZN16TimeoutSemaphoreD1Ev, @function
_ZN16TimeoutSemaphoreD1Ev:
.LFB1154:
	.loc 6 53 0
	.cfi_startproc
	.cfi_personality 0x0,__gxx_personality_v0
.LVL83:
	pushl	%ebp
.LCFI46:
	.cfi_def_cfa_offset 8
	movl	%esp, %ebp
	.cfi_offset 5, -8
.LCFI47:
	.cfi_def_cfa_register 5
	pushl	%ebx
	subl	$16, %esp
	.loc 6 53 0
	movl	8(%ebp), %ebx
	.cfi_offset 3, -12
.LBB1282:
	.loc 6 54 0
	movl	$_ZTV16TimeoutSemaphore+8, (%ebx)
.LBB1284:
	.loc 6 55 0
	movl	4(%ebx), %eax
	pushl	%eax
	.cfi_escape 0x2e,0x10
	call	sem_destroy
	.loc 6 56 0
	addl	$16, %esp
	testl	%eax, %eax
.LVL84:
	je	.L101
.LVL85:
	.loc 6 57 0
	subl	$12, %esp
	pushl	$.LC3
	pushl	$_ZZN16TimeoutSemaphoreD1EvE8__func__
	pushl	$_ZZN16TimeoutSemaphoreD1EvE19__PRETTY_FUNCTION__
	pushl	$.LC4
	pushl	$57
	.cfi_escape 0x2e,0x20
	call	vermont_exception
.LVL86:
	addl	$32, %esp
.LVL87:
.L101:
	.loc 6 59 0
	movl	4(%ebx), %eax
.LVL88:
.LBE1284:
.LBE1282:
	.loc 6 60 0
	movl	-4(%ebp), %ebx
.LVL89:
.LBB1286:
.LBB1283:
	.loc 6 59 0
	movl	%eax, 8(%ebp)
.LBE1283:
.LBE1286:
	.loc 6 60 0
	leave
.LBB1287:
.LBB1285:
	.loc 6 59 0
	.cfi_escape 0x2e,0x4
	jmp	_ZdlPv
.LBE1285:
.LBE1287:
	.cfi_endproc
.LFE1154:
	.size	_ZN16TimeoutSemaphoreD1Ev, .-_ZN16TimeoutSemaphoreD1Ev
	.section	.rodata.str1.4
	.align 4
.LC5:
	.string	"mutex has not been initialized correctly"
	.align 4
.LC6:
	.string	"/home/simon/da/lockfree/src/common/Mutex.h"
	.section	.rodata.str1.1
.LC7:
	.string	"deadlock has occured"
	.section	.rodata.str1.4
	.align 4
.LC8:
	.string	"pthread_mutex_lock returned with unknown failure %d"
	.align 4
.LC9:
	.string	"calling thread does not own mutex"
	.align 4
.LC10:
	.string	"pthread_mutex_unlock returned with unknown failure %d"
	.section	.text._ZN8STLQueueIjE3popEPj,"axG",@progbits,_ZN8STLQueueIjE3popEPj,comdat
	.align 2
	.p2align 4,,15
	.weak	_ZN8STLQueueIjE3popEPj
	.type	_ZN8STLQueueIjE3popEPj, @function
_ZN8STLQueueIjE3popEPj:
.LFB1423:
	.file 11 "/home/simon/da/lockfree/src/common/STLQueue.h"
	.loc 11 42 0
	.cfi_startproc
	.cfi_personality 0x0,__gxx_personality_v0
.LVL90:
	pushl	%ebp
.LCFI48:
	.cfi_def_cfa_offset 8
	.loc 11 43 0
	xorl	%eax, %eax
	.loc 11 42 0
	movl	%esp, %ebp
	.cfi_offset 5, -8
.LCFI49:
	.cfi_def_cfa_register 5
	pushl	%esi
	pushl	%ebx
	subl	$16, %esp
	.loc 11 42 0
	movl	8(%ebp), %ebx
	.cfi_offset 3, -16
	.cfi_offset 6, -12
	.loc 11 43 0
	movl	28(%ebx), %edx
	cmpl	12(%ebx), %edx
	je	.L105
.LVL91:
.LBB1313:
.LBB1315:
	.file 12 "/home/simon/da/lockfree/src/common/Mutex.h"
	.loc 12 47 0
	subl	$12, %esp
	leal	48(%ebx), %esi
	pushl	%esi
	.cfi_escape 0x2e,0x10
	call	pthread_mutex_lock
	.loc 12 48 0
	addl	$16, %esp
	cmpl	$22, %eax
.LVL92:
	je	.L108
	cmpl	$35, %eax
	je	.L109
	testl	%eax, %eax
	jne	.L119
.L107:
.LBE1315:
.LBE1313:
	.loc 11 47 0
	movl	12(%ebx), %eax
.LVL93:
	movl	12(%ebp), %edx
	movl	(%eax), %ecx
	movl	%ecx, (%edx)
.LBB1317:
.LBB1318:
.LBB1319:
	.loc 8 1234 0
	movl	20(%ebx), %edx
	subl	$4, %edx
	cmpl	%edx, %eax
	je	.L110
.LVL94:
	.loc 8 1238 0
	addl	$4, %eax
	movl	%eax, 12(%ebx)
.L111:
.LBE1319:
.LBE1318:
.LBE1317:
.LBB1331:
.LBB1334:
	.loc 12 65 0
	subl	$12, %esp
	pushl	%esi
	call	pthread_mutex_unlock
	.loc 12 66 0
	addl	$16, %esp
	.loc 12 65 0
	movl	%eax, %edx
.LVL95:
	.loc 12 66 0
	cmpl	$1, %eax
	je	.L114
.LVL96:
	cmpl	$22, %eax
	je	.L115
	movb	$1, %al
.LVL97:
	testl	%edx, %edx
	jne	.L120
.LVL98:
.L105:
.LBE1334:
.LBE1331:
	.loc 11 52 0
	leal	-8(%ebp), %esp
	popl	%ebx
.LVL99:
	popl	%esi
	popl	%ebp
	ret
.LVL100:
	.p2align 4,,7
	.p2align 3
.L120:
.LBB1338:
.LBB1335:
	.loc 12 76 0
	pushl	%ecx
	pushl	%ecx
	pushl	%edx
	pushl	$.LC10
	pushl	$_ZZN5Mutex6unlockEvE8__func__
	pushl	$_ZZN5Mutex6unlockEvE19__PRETTY_FUNCTION__
	pushl	$.LC6
	pushl	$76
	movb	%al, -12(%ebp)
	.cfi_escape 0x2e,0x20
	call	vermont_exception
.LVL101:
	movb	-12(%ebp), %al
	addl	$32, %esp
.LBE1335:
.LBE1338:
	.loc 11 52 0
	leal	-8(%ebp), %esp
	popl	%ebx
.LVL102:
	popl	%esi
	popl	%ebp
	ret
.LVL103:
	.p2align 4,,7
	.p2align 3
.L119:
.LBB1339:
.LBB1314:
	.loc 12 58 0
	pushl	%edx
	pushl	%edx
	pushl	%eax
	pushl	$.LC8
	pushl	$_ZZN5Mutex4lockEvE8__func__
	pushl	$_ZZN5Mutex4lockEvE19__PRETTY_FUNCTION__
	pushl	$.LC6
	pushl	$58
	call	vermont_exception
.LVL104:
	addl	$32, %esp
	jmp	.L107
.LVL105:
	.p2align 4,,7
	.p2align 3
.L109:
	.loc 12 55 0
	subl	$12, %esp
	pushl	$.LC7
	pushl	$_ZZN5Mutex4lockEvE8__func__
	pushl	$_ZZN5Mutex4lockEvE19__PRETTY_FUNCTION__
	pushl	$.LC6
	pushl	$55
	call	vermont_exception
.LVL106:
	addl	$32, %esp
	jmp	.L107
.LVL107:
	.p2align 4,,7
	.p2align 3
.L114:
.LBE1314:
.LBE1339:
.LBB1340:
.LBB1333:
	.loc 12 73 0
	subl	$12, %esp
	pushl	$.LC9
	pushl	$_ZZN5Mutex6unlockEvE8__func__
	pushl	$_ZZN5Mutex6unlockEvE19__PRETTY_FUNCTION__
	pushl	$.LC6
	pushl	$73
	call	vermont_exception
.LVL108:
	addl	$32, %esp
.LBE1333:
.LBE1340:
	.loc 11 52 0
	leal	-8(%ebp), %esp
.LBB1341:
.LBB1336:
	.loc 12 73 0
	movb	$1, %al
.LBE1336:
.LBE1341:
	.loc 11 52 0
	popl	%ebx
.LVL109:
	popl	%esi
	popl	%ebp
	ret
.LVL110:
	.p2align 4,,7
	.p2align 3
.L108:
.LBB1342:
.LBB1316:
	.loc 12 52 0
	subl	$12, %esp
	pushl	$.LC5
	pushl	$_ZZN5Mutex4lockEvE8__func__
	pushl	$_ZZN5Mutex4lockEvE19__PRETTY_FUNCTION__
	pushl	$.LC6
	pushl	$52
	call	vermont_exception
.LVL111:
	addl	$32, %esp
	jmp	.L107
.LVL112:
	.p2align 4,,7
	.p2align 3
.L115:
.LBE1316:
.LBE1342:
.LBB1343:
.LBB1332:
	.loc 12 70 0
	subl	$12, %esp
	pushl	$.LC5
	pushl	$_ZZN5Mutex6unlockEvE8__func__
	pushl	$_ZZN5Mutex6unlockEvE19__PRETTY_FUNCTION__
	pushl	$.LC6
	pushl	$70
	call	vermont_exception
.LVL113:
	addl	$32, %esp
.LBE1332:
.LBE1343:
	.loc 11 52 0
	leal	-8(%ebp), %esp
.LBB1344:
.LBB1337:
	.loc 12 70 0
	movb	$1, %al
.LBE1337:
.LBE1344:
	.loc 11 52 0
	popl	%ebx
.LVL114:
	popl	%esi
	popl	%ebp
	ret
.LVL115:
	.p2align 4,,7
	.p2align 3
.L110:
.LBB1345:
.LBB1330:
.LBB1329:
.LBB1320:
.LBB1321:
.LBB1322:
.LBB1323:
.LBB1324:
	.loc 9 95 0
	subl	$12, %esp
	movl	16(%ebx), %eax
	pushl	%eax
	.cfi_escape 0x2e,0x10
	call	_ZdlPv
.LBE1324:
.LBE1323:
.LBE1322:
	.file 13 "/usr/include/c++/4.4/bits/deque.tcc"
	.loc 13 446 0
	movl	24(%ebx), %eax
	.loc 13 447 0
	addl	$16, %esp
	.loc 13 446 0
	leal	4(%eax), %edx
.LBB1325:
.LBB1326:
	.loc 8 225 0
	movl	4(%eax), %eax
	.loc 8 224 0
	movl	%edx, 24(%ebx)
	.loc 8 225 0
	movl	%eax, 16(%ebx)
	.loc 8 226 0
	leal	512(%eax), %edx
.LBE1326:
.LBE1325:
	.loc 13 447 0
	movl	%eax, 12(%ebx)
.LBB1328:
.LBB1327:
	.loc 8 226 0
	movl	%edx, 20(%ebx)
	jmp	.L111
.LBE1327:
.LBE1328:
.LBE1321:
.LBE1320:
.LBE1329:
.LBE1330:
.LBE1345:
	.cfi_endproc
.LFE1423:
	.size	_ZN8STLQueueIjE3popEPj, .-_ZN8STLQueueIjE3popEPj
	.section	.text._ZN5MutexD1Ev,"axG",@progbits,_ZN5MutexD1Ev,comdat
	.align 2
	.p2align 4,,15
	.weak	_ZN5MutexD1Ev
	.type	_ZN5MutexD1Ev, @function
_ZN5MutexD1Ev:
.LFB1047:
	.loc 12 40 0
	.cfi_startproc
	.cfi_personality 0x0,__gxx_personality_v0
.LVL116:
	pushl	%ebp
.LCFI50:
	.cfi_def_cfa_offset 8
	movl	%esp, %ebp
	.cfi_offset 5, -8
.LCFI51:
	.cfi_def_cfa_register 5
	subl	$8, %esp
	.loc 12 40 0
	movl	8(%ebp), %eax
	.loc 12 41 0
	movl	$_ZTV5Mutex+8, (%eax)
	.loc 12 42 0
	addl	$4, %eax
	movl	%eax, 8(%ebp)
	.loc 12 43 0
	leave
	.loc 12 42 0
	.cfi_escape 0x2e,0x4
	jmp	pthread_mutex_destroy
	.cfi_endproc
.LFE1047:
	.size	_ZN5MutexD1Ev, .-_ZN5MutexD1Ev
	.section	.text._ZN5MutexD0Ev,"axG",@progbits,_ZN5MutexD0Ev,comdat
	.align 2
	.p2align 4,,15
	.weak	_ZN5MutexD0Ev
	.type	_ZN5MutexD0Ev, @function
_ZN5MutexD0Ev:
.LFB1048:
	.loc 12 40 0
	.cfi_startproc
	.cfi_personality 0x0,__gxx_personality_v0
.LVL117:
	pushl	%ebp
.LCFI52:
	.cfi_def_cfa_offset 8
	movl	%esp, %ebp
	.cfi_offset 5, -8
.LCFI53:
	.cfi_def_cfa_register 5
	pushl	%ebx
	subl	$16, %esp
	.loc 12 40 0
	movl	8(%ebp), %ebx
	.cfi_offset 3, -12
	.loc 12 41 0
	movl	$_ZTV5Mutex+8, (%ebx)
	.loc 12 42 0
	leal	4(%ebx), %eax
	pushl	%eax
	.cfi_escape 0x2e,0x10
	call	pthread_mutex_destroy
	.loc 12 43 0
	movl	%ebx, 8(%ebp)
	addl	$16, %esp
	movl	-4(%ebp), %ebx
	leave
	.cfi_escape 0x2e,0x4
	jmp	_ZdlPv
	.cfi_endproc
.LFE1048:
	.size	_ZN5MutexD0Ev, .-_ZN5MutexD0Ev
	.section	.rodata.str1.1
.LC11:
	.string	"lock of emptyutex failed"
	.section	.rodata.str1.4
	.align 4
.LC12:
	.string	"/home/simon/da/lockfree/src/common/ConcurrentQueue.h"
	.section	.rodata.str1.1
.LC13:
	.string	"unlock of emptyMutex failed"
.LC14:
	.string	"emptyCond wait failed"
.LC15:
	.string	"lock of fullMutex failed"
.LC16:
	.string	"fullCond broadcast failed"
.LC17:
	.string	"unlock of fullMutex failed"
	.section	.text._ZN19ConcurrentQueueCondIjE6popAbsERK8timespecPj,"axG",@progbits,_ZN19ConcurrentQueueCondIjE6popAbsERK8timespecPj,comdat
	.align 2
	.p2align 4,,15
	.weak	_ZN19ConcurrentQueueCondIjE6popAbsERK8timespecPj
	.type	_ZN19ConcurrentQueueCondIjE6popAbsERK8timespecPj, @function
_ZN19ConcurrentQueueCondIjE6popAbsERK8timespecPj:
.LFB1464:
	.loc 3 421 0
	.cfi_startproc
	.cfi_personality 0x0,__gxx_personality_v0
.LVL118:
	pushl	%ebp
.LCFI54:
	.cfi_def_cfa_offset 8
	movl	%esp, %ebp
	.cfi_offset 5, -8
.LCFI55:
	.cfi_def_cfa_register 5
	pushl	%edi
	pushl	%esi
	pushl	%ebx
	subl	$12, %esp
	.loc 3 421 0
	movl	8(%ebp), %ebx
	.cfi_offset 3, -20
	.cfi_offset 6, -16
	.cfi_offset 7, -12
	movl	12(%ebp), %edi
	movl	16(%ebp), %esi
.LBB1346:
	.loc 3 424 0
	jmp	.L139
.LVL119:
	.p2align 4,,7
	.p2align 3
.L127:
.LBB1349:
	.loc 3 429 0
	pushl	%edx
	pushl	%edi
	movl	36(%ebx), %eax
	pushl	%eax
	movl	40(%ebx), %ecx
	pushl	%ecx
	.cfi_escape 0x2e,0x10
	call	pthread_cond_timedwait
	.loc 3 430 0
	addl	$16, %esp
	testl	%eax, %eax
.LVL120:
	je	.L128
	.loc 3 431 0
	cmpl	$110, %eax
	je	.L140
	.loc 3 437 0
	subl	$12, %esp
	pushl	$.LC14
	pushl	$_ZZN19ConcurrentQueueCondIjE6popAbsERK8timespecPjE8__func__
	pushl	$_ZZN19ConcurrentQueueCondIjE6popAbsERK8timespecPjE19__PRETTY_FUNCTION__
	pushl	$.LC12
	pushl	$437
	.cfi_escape 0x2e,0x20
	call	vermont_exception
.LVL121:
	addl	$32, %esp
.LVL122:
.L128:
	.loc 3 440 0
	subl	$12, %esp
	movl	36(%ebx), %eax
.LVL123:
	pushl	%eax
	.cfi_escape 0x2e,0x10
	call	pthread_mutex_unlock
	addl	$16, %esp
	testl	%eax, %eax
	jne	.L141
.L139:
.LBE1349:
	.loc 3 424 0
	movl	4(%ebx), %eax
	pushl	%ecx
	pushl	%ecx
	movl	(%eax), %edx
	pushl	%esi
	pushl	%eax
	call	*12(%edx)
	addl	$16, %esp
	testb	%al, %al
	jne	.L142
.LBB1348:
	.loc 3 426 0
	subl	$12, %esp
	movl	36(%ebx), %ecx
	pushl	%ecx
	call	pthread_mutex_lock
	addl	$16, %esp
	testl	%eax, %eax
	je	.L127
	.loc 3 427 0
	subl	$12, %esp
	pushl	$.LC11
	pushl	$_ZZN19ConcurrentQueueCondIjE6popAbsERK8timespecPjE8__func__
	pushl	$_ZZN19ConcurrentQueueCondIjE6popAbsERK8timespecPjE19__PRETTY_FUNCTION__
	pushl	$.LC12
	pushl	$427
	.cfi_escape 0x2e,0x20
	call	vermont_exception
	addl	$32, %esp
	jmp	.L127
	.p2align 4,,7
	.p2align 3
.L141:
	.loc 3 441 0
	subl	$12, %esp
	pushl	$.LC13
	pushl	$_ZZN19ConcurrentQueueCondIjE6popAbsERK8timespecPjE8__func__
	pushl	$_ZZN19ConcurrentQueueCondIjE6popAbsERK8timespecPjE19__PRETTY_FUNCTION__
	pushl	$.LC12
	pushl	$441
	call	vermont_exception
	addl	$32, %esp
	jmp	.L139
	.p2align 4,,7
	.p2align 3
.L142:
.LBE1348:
	.loc 3 444 0
	movl	20(%ebx), %eax
	.loc 3 447 0
	subl	$12, %esp
	movl	28(%ebx), %edi
.LVL124:
	.loc 3 444 0
	movl	(%eax), %edx
	incl	%edx
	movl	%edx, (%eax)
	.loc 3 447 0
	pushl	%edi
	.cfi_escape 0x2e,0x10
	call	pthread_mutex_lock
	addl	$16, %esp
	testl	%eax, %eax
	jne	.L143
.L133:
	.loc 3 450 0
	subl	$12, %esp
	movl	32(%ebx), %esi
.LVL125:
	pushl	%esi
	call	pthread_cond_signal
	addl	$16, %esp
	testl	%eax, %eax
	jne	.L144
.L134:
	.loc 3 453 0
	subl	$12, %esp
	movl	28(%ebx), %ecx
	pushl	%ecx
	call	pthread_mutex_unlock
	movl	%eax, %edx
	addl	$16, %esp
	movb	$1, %al
	testl	%edx, %edx
	jne	.L145
.LVL126:
.L131:
.LBE1346:
	.loc 3 457 0
	leal	-12(%ebp), %esp
	popl	%ebx
.LVL127:
	popl	%esi
	popl	%edi
	popl	%ebp
	ret
.LVL128:
	.p2align 4,,7
	.p2align 3
.L145:
.LBB1351:
	.loc 3 454 0
	subl	$12, %esp
	pushl	$.LC17
	pushl	$_ZZN19ConcurrentQueueCondIjE6popAbsERK8timespecPjE8__func__
	pushl	$_ZZN19ConcurrentQueueCondIjE6popAbsERK8timespecPjE19__PRETTY_FUNCTION__
	pushl	$.LC12
	pushl	$454
	.cfi_escape 0x2e,0x20
	call	vermont_exception
	addl	$32, %esp
.LBE1351:
	.loc 3 457 0
	leal	-12(%ebp), %esp
.LBB1352:
	.loc 3 454 0
	movb	$1, %al
.LBE1352:
	.loc 3 457 0
	popl	%ebx
.LVL129:
	popl	%esi
	popl	%edi
	popl	%ebp
	ret
.LVL130:
	.p2align 4,,7
	.p2align 3
.L140:
.LBB1353:
.LBB1350:
	.loc 3 432 0
	subl	$12, %esp
	movl	36(%ebx), %edx
	pushl	%edx
	.cfi_escape 0x2e,0x10
	call	pthread_mutex_unlock
.LVL131:
	movl	%eax, %edx
	addl	$16, %esp
	xorl	%eax, %eax
	testl	%edx, %edx
	je	.L131
	.loc 3 433 0
	subl	$12, %esp
	pushl	$.LC13
	pushl	$_ZZN19ConcurrentQueueCondIjE6popAbsERK8timespecPjE8__func__
	pushl	$_ZZN19ConcurrentQueueCondIjE6popAbsERK8timespecPjE19__PRETTY_FUNCTION__
	pushl	$.LC12
	pushl	$433
	.cfi_escape 0x2e,0x20
	call	vermont_exception
	addl	$32, %esp
.LBE1350:
.LBE1353:
	.loc 3 457 0
	leal	-12(%ebp), %esp
.LBB1354:
.LBB1347:
	.loc 3 433 0
	xorl	%eax, %eax
.LBE1347:
.LBE1354:
	.loc 3 457 0
	popl	%ebx
.LVL132:
	popl	%esi
.LVL133:
	popl	%edi
.LVL134:
	popl	%ebp
	ret
.LVL135:
.L144:
.LBB1355:
	.loc 3 451 0
	subl	$12, %esp
	pushl	$.LC16
	pushl	$_ZZN19ConcurrentQueueCondIjE6popAbsERK8timespecPjE8__func__
	pushl	$_ZZN19ConcurrentQueueCondIjE6popAbsERK8timespecPjE19__PRETTY_FUNCTION__
	pushl	$.LC12
	pushl	$451
	call	vermont_exception
	addl	$32, %esp
	jmp	.L134
.LVL136:
.L143:
	.loc 3 448 0
	subl	$12, %esp
	pushl	$.LC15
	pushl	$_ZZN19ConcurrentQueueCondIjE6popAbsERK8timespecPjE8__func__
	pushl	$_ZZN19ConcurrentQueueCondIjE6popAbsERK8timespecPjE19__PRETTY_FUNCTION__
	pushl	$.LC12
	pushl	$448
	call	vermont_exception
	addl	$32, %esp
	jmp	.L133
.LBE1355:
	.cfi_endproc
.LFE1464:
	.size	_ZN19ConcurrentQueueCondIjE6popAbsERK8timespecPj, .-_ZN19ConcurrentQueueCondIjE6popAbsERK8timespecPj
	.section	.text._ZN19ConcurrentQueueCondIjE3popEPj,"axG",@progbits,_ZN19ConcurrentQueueCondIjE3popEPj,comdat
	.align 2
	.p2align 4,,15
	.weak	_ZN19ConcurrentQueueCondIjE3popEPj
	.type	_ZN19ConcurrentQueueCondIjE3popEPj, @function
_ZN19ConcurrentQueueCondIjE3popEPj:
.LFB1463:
	.loc 3 384 0
	.cfi_startproc
	.cfi_personality 0x0,__gxx_personality_v0
.LVL137:
	pushl	%ebp
.LCFI56:
	.cfi_def_cfa_offset 8
	movl	%esp, %ebp
	.cfi_offset 5, -8
.LCFI57:
	.cfi_def_cfa_register 5
	pushl	%edi
	pushl	%esi
	pushl	%ebx
	subl	$28, %esp
.LBB1356:
.LBB1359:
	.loc 3 390 0
	leal	-32(%ebp), %esi
	.cfi_offset 3, -20
	.cfi_offset 6, -16
	.cfi_offset 7, -12
.LBE1359:
.LBE1356:
	.loc 3 384 0
	movl	8(%ebp), %ebx
	movl	12(%ebp), %edi
.LBB1360:
	.loc 3 387 0
	jmp	.L157
.LVL138:
	.p2align 4,,7
	.p2align 3
.L148:
.LBB1358:
	.loc 3 396 0
	pushl	%eax
	pushl	%esi
	movl	36(%ebx), %ecx
	pushl	%ecx
	movl	40(%ebx), %edx
	pushl	%edx
	.cfi_escape 0x2e,0x10
	call	pthread_cond_timedwait
	.loc 3 397 0
	addl	$16, %esp
	cmpl	$110, %eax
.LVL139:
	jne	.L158
.L149:
	.loc 3 400 0
	subl	$12, %esp
	movl	36(%ebx), %eax
.LVL140:
	pushl	%eax
	call	pthread_mutex_unlock
	addl	$16, %esp
	testl	%eax, %eax
	jne	.L159
.L157:
.LBE1358:
	.loc 3 387 0
	movl	4(%ebx), %eax
	pushl	%ecx
	pushl	%ecx
	movl	(%eax), %edx
	pushl	%edi
	pushl	%eax
	call	*12(%edx)
	addl	$16, %esp
	testb	%al, %al
	jne	.L160
.LBB1357:
	.loc 3 390 0
	pushl	%ecx
	pushl	%ecx
	pushl	%esi
	pushl	$0
	call	clock_gettime
	.loc 3 391 0
	movl	16(%ebx), %eax
	movl	-28(%ebp), %edx
	movl	(%eax), %eax
	addl	%eax, %edx
	.loc 3 393 0
	popl	%ecx
	.loc 3 391 0
	movl	%edx, -28(%ebp)
	.loc 3 393 0
	movl	36(%ebx), %edx
	pushl	%edx
	call	pthread_mutex_lock
	addl	$16, %esp
	testl	%eax, %eax
	je	.L148
	.loc 3 394 0
	subl	$12, %esp
	pushl	$.LC11
	pushl	$_ZZN19ConcurrentQueueCondIjE3popEPjE8__func__
	pushl	$_ZZN19ConcurrentQueueCondIjE3popEPjE19__PRETTY_FUNCTION__
	pushl	$.LC12
	pushl	$394
	.cfi_escape 0x2e,0x20
	call	vermont_exception
	addl	$32, %esp
	jmp	.L148
.LVL141:
	.p2align 4,,7
	.p2align 3
.L158:
	.loc 3 397 0
	testl	%eax, %eax
	je	.L149
	.loc 3 398 0
	subl	$12, %esp
	pushl	$.LC14
	pushl	$_ZZN19ConcurrentQueueCondIjE3popEPjE8__func__
	pushl	$_ZZN19ConcurrentQueueCondIjE3popEPjE19__PRETTY_FUNCTION__
	pushl	$.LC12
	pushl	$398
	call	vermont_exception
.LVL142:
	addl	$32, %esp
	jmp	.L149
	.p2align 4,,7
	.p2align 3
.L159:
	.loc 3 401 0
	subl	$12, %esp
	pushl	$.LC13
	pushl	$_ZZN19ConcurrentQueueCondIjE3popEPjE8__func__
	pushl	$_ZZN19ConcurrentQueueCondIjE3popEPjE19__PRETTY_FUNCTION__
	pushl	$.LC12
	pushl	$401
	call	vermont_exception
	addl	$32, %esp
	jmp	.L157
	.p2align 4,,7
	.p2align 3
.L160:
.LBE1357:
	.loc 3 404 0
	movl	20(%ebx), %eax
	.loc 3 407 0
	subl	$12, %esp
	movl	28(%ebx), %edi
.LVL143:
	.loc 3 404 0
	movl	(%eax), %edx
	incl	%edx
	movl	%edx, (%eax)
	.loc 3 407 0
	pushl	%edi
	.cfi_escape 0x2e,0x10
	call	pthread_mutex_lock
	addl	$16, %esp
	testl	%eax, %eax
	jne	.L161
.L151:
	.loc 3 410 0
	subl	$12, %esp
	movl	32(%ebx), %esi
	pushl	%esi
	call	pthread_cond_signal
	addl	$16, %esp
	testl	%eax, %eax
	jne	.L162
.L152:
	.loc 3 413 0
	subl	$12, %esp
	movl	28(%ebx), %ebx
.LVL144:
	pushl	%ebx
	call	pthread_mutex_unlock
	addl	$16, %esp
	testl	%eax, %eax
	je	.L153
	.loc 3 414 0
	subl	$12, %esp
	pushl	$.LC17
	pushl	$_ZZN19ConcurrentQueueCondIjE3popEPjE8__func__
	pushl	$_ZZN19ConcurrentQueueCondIjE3popEPjE19__PRETTY_FUNCTION__
	pushl	$.LC12
	pushl	$414
	.cfi_escape 0x2e,0x20
	call	vermont_exception
	addl	$32, %esp
.L153:
.LBE1360:
	.loc 3 417 0
	leal	-12(%ebp), %esp
	movb	$1, %al
	popl	%ebx
	popl	%esi
	popl	%edi
	popl	%ebp
	ret
.LVL145:
	.p2align 4,,7
	.p2align 3
.L162:
.LBB1361:
	.loc 3 411 0
	subl	$12, %esp
	pushl	$.LC16
	pushl	$_ZZN19ConcurrentQueueCondIjE3popEPjE8__func__
	pushl	$_ZZN19ConcurrentQueueCondIjE3popEPjE19__PRETTY_FUNCTION__
	pushl	$.LC12
	pushl	$411
	call	vermont_exception
	addl	$32, %esp
	jmp	.L152
	.p2align 4,,7
	.p2align 3
.L161:
	.loc 3 408 0
	subl	$12, %esp
	pushl	$.LC15
	pushl	$_ZZN19ConcurrentQueueCondIjE3popEPjE8__func__
	pushl	$_ZZN19ConcurrentQueueCondIjE3popEPjE19__PRETTY_FUNCTION__
	pushl	$.LC12
	pushl	$408
	call	vermont_exception
	addl	$32, %esp
	jmp	.L151
.LBE1361:
	.cfi_endproc
.LFE1463:
	.size	_ZN19ConcurrentQueueCondIjE3popEPj, .-_ZN19ConcurrentQueueCondIjE3popEPj
	.section	.rodata.str1.1
.LC18:
	.string	"fullCond wait failed"
.LC19:
	.string	"lock of emptyMutex failed"
.LC20:
	.string	"emptyCond broadcast failed"
	.section	.text._ZN19ConcurrentQueueCondIjE4pushEj,"axG",@progbits,_ZN19ConcurrentQueueCondIjE4pushEj,comdat
	.align 2
	.p2align 4,,15
	.weak	_ZN19ConcurrentQueueCondIjE4pushEj
	.type	_ZN19ConcurrentQueueCondIjE4pushEj, @function
_ZN19ConcurrentQueueCondIjE4pushEj:
.LFB1462:
	.loc 3 350 0
	.cfi_startproc
	.cfi_personality 0x0,__gxx_personality_v0
.LVL146:
	pushl	%ebp
.LCFI58:
	.cfi_def_cfa_offset 8
	movl	%esp, %ebp
	.cfi_offset 5, -8
.LCFI59:
	.cfi_def_cfa_register 5
	pushl	%edi
	pushl	%esi
	pushl	%ebx
	subl	$28, %esp
.LBB1362:
.LBB1365:
	.loc 3 356 0
	leal	-32(%ebp), %esi
	.cfi_offset 3, -20
	.cfi_offset 6, -16
	.cfi_offset 7, -12
.LBE1365:
.LBE1362:
	.loc 3 350 0
	movl	8(%ebp), %ebx
	movl	12(%ebp), %edi
.LBB1366:
	.loc 3 353 0
	jmp	.L174
.LVL147:
	.p2align 4,,7
	.p2align 3
.L165:
.LBB1364:
	.loc 3 362 0
	pushl	%eax
	pushl	%esi
	movl	28(%ebx), %ecx
	pushl	%ecx
	movl	32(%ebx), %edx
	pushl	%edx
	.cfi_escape 0x2e,0x10
	call	pthread_cond_timedwait
	.loc 3 363 0
	addl	$16, %esp
	cmpl	$110, %eax
.LVL148:
	jne	.L175
.L166:
	.loc 3 366 0
	subl	$12, %esp
	movl	28(%ebx), %eax
.LVL149:
	pushl	%eax
	call	pthread_mutex_unlock
	addl	$16, %esp
	testl	%eax, %eax
	jne	.L176
.L174:
.LBE1364:
	.loc 3 353 0
	movl	4(%ebx), %eax
	pushl	%ecx
	pushl	%ecx
	movl	(%eax), %edx
	pushl	%edi
	pushl	%eax
	call	*8(%edx)
	addl	$16, %esp
	testb	%al, %al
	jne	.L177
.LBB1363:
	.loc 3 356 0
	pushl	%ecx
	pushl	%ecx
	pushl	%esi
	pushl	$0
	call	clock_gettime
	.loc 3 357 0
	movl	24(%ebx), %eax
	movl	-28(%ebp), %edx
	movl	(%eax), %eax
	addl	%eax, %edx
	.loc 3 359 0
	popl	%ecx
	.loc 3 357 0
	movl	%edx, -28(%ebp)
	.loc 3 359 0
	movl	28(%ebx), %edx
	pushl	%edx
	call	pthread_mutex_lock
	addl	$16, %esp
	testl	%eax, %eax
	je	.L165
	.loc 3 360 0
	subl	$12, %esp
	pushl	$.LC15
	pushl	$_ZZN19ConcurrentQueueCondIjE4pushEjE8__func__
	pushl	$_ZZN19ConcurrentQueueCondIjE4pushEjE19__PRETTY_FUNCTION__
	pushl	$.LC12
	pushl	$360
	.cfi_escape 0x2e,0x20
	call	vermont_exception
	addl	$32, %esp
	jmp	.L165
.LVL150:
	.p2align 4,,7
	.p2align 3
.L175:
	.loc 3 363 0
	testl	%eax, %eax
	je	.L166
	.loc 3 364 0
	subl	$12, %esp
	pushl	$.LC18
	pushl	$_ZZN19ConcurrentQueueCondIjE4pushEjE8__func__
	pushl	$_ZZN19ConcurrentQueueCondIjE4pushEjE19__PRETTY_FUNCTION__
	pushl	$.LC12
	pushl	$364
	call	vermont_exception
.LVL151:
	addl	$32, %esp
	jmp	.L166
	.p2align 4,,7
	.p2align 3
.L176:
	.loc 3 367 0
	subl	$12, %esp
	pushl	$.LC17
	pushl	$_ZZN19ConcurrentQueueCondIjE4pushEjE8__func__
	pushl	$_ZZN19ConcurrentQueueCondIjE4pushEjE19__PRETTY_FUNCTION__
	pushl	$.LC12
	pushl	$367
	call	vermont_exception
	addl	$32, %esp
	jmp	.L174
	.p2align 4,,7
	.p2align 3
.L177:
.LBE1363:
	.loc 3 370 0
	movl	12(%ebx), %eax
	.loc 3 373 0
	subl	$12, %esp
	movl	36(%ebx), %edi
.LVL152:
	.loc 3 370 0
	movl	(%eax), %edx
	incl	%edx
	movl	%edx, (%eax)
	.loc 3 373 0
	pushl	%edi
	.cfi_escape 0x2e,0x10
	call	pthread_mutex_lock
	addl	$16, %esp
	testl	%eax, %eax
	jne	.L178
.L168:
	.loc 3 376 0
	subl	$12, %esp
	movl	40(%ebx), %esi
	pushl	%esi
	call	pthread_cond_signal
	addl	$16, %esp
	testl	%eax, %eax
	jne	.L179
.L169:
	.loc 3 379 0
	subl	$12, %esp
	movl	36(%ebx), %ebx
.LVL153:
	pushl	%ebx
	call	pthread_mutex_unlock
	addl	$16, %esp
	testl	%eax, %eax
	je	.L171
	.loc 3 380 0
	subl	$12, %esp
	pushl	$.LC13
	pushl	$_ZZN19ConcurrentQueueCondIjE4pushEjE8__func__
	pushl	$_ZZN19ConcurrentQueueCondIjE4pushEjE19__PRETTY_FUNCTION__
	pushl	$.LC12
	pushl	$380
	.cfi_escape 0x2e,0x20
	call	vermont_exception
	addl	$32, %esp
.L171:
.LBE1366:
	.loc 3 382 0
	leal	-12(%ebp), %esp
	popl	%ebx
	popl	%esi
	popl	%edi
	popl	%ebp
	ret
.LVL154:
	.p2align 4,,7
	.p2align 3
.L179:
.LBB1367:
	.loc 3 377 0
	subl	$12, %esp
	pushl	$.LC20
	pushl	$_ZZN19ConcurrentQueueCondIjE4pushEjE8__func__
	pushl	$_ZZN19ConcurrentQueueCondIjE4pushEjE19__PRETTY_FUNCTION__
	pushl	$.LC12
	pushl	$377
	call	vermont_exception
	addl	$32, %esp
	jmp	.L169
	.p2align 4,,7
	.p2align 3
.L178:
	.loc 3 374 0
	subl	$12, %esp
	pushl	$.LC19
	pushl	$_ZZN19ConcurrentQueueCondIjE4pushEjE8__func__
	pushl	$_ZZN19ConcurrentQueueCondIjE4pushEjE19__PRETTY_FUNCTION__
	pushl	$.LC12
	pushl	$374
	call	vermont_exception
	addl	$32, %esp
	jmp	.L168
.LBE1367:
	.cfi_endproc
.LFE1462:
	.size	_ZN19ConcurrentQueueCondIjE4pushEj, .-_ZN19ConcurrentQueueCondIjE4pushEj
	.section	.text._ZN23ConcurrentQueueSpinlockIjE6popAbsERK8timespecPj,"axG",@progbits,_ZN23ConcurrentQueueSpinlockIjE6popAbsERK8timespecPj,comdat
	.align 2
	.p2align 4,,15
	.weak	_ZN23ConcurrentQueueSpinlockIjE6popAbsERK8timespecPj
	.type	_ZN23ConcurrentQueueSpinlockIjE6popAbsERK8timespecPj, @function
_ZN23ConcurrentQueueSpinlockIjE6popAbsERK8timespecPj:
.LFB1456:
	.loc 3 587 0
	.cfi_startproc
	.cfi_personality 0x0,__gxx_personality_v0
.LVL155:
	pushl	%ebp
.LCFI60:
	.cfi_def_cfa_offset 8
	movl	%esp, %ebp
	.cfi_offset 5, -8
.LCFI61:
	.cfi_def_cfa_register 5
	pushl	%esi
	pushl	%ebx
	.loc 3 587 0
	movl	8(%ebp), %ebx
	.cfi_offset 3, -16
	.cfi_offset 6, -12
	movl	16(%ebp), %esi
	.loc 3 590 0
	movl	4(%ebx), %eax
	pushl	%ecx
	pushl	%ecx
	movl	(%eax), %edx
	pushl	%esi
	pushl	%eax
	.cfi_escape 0x2e,0x10
	call	*12(%edx)
	addl	$16, %esp
	testb	%al, %al
	je	.L185
.LVL156:
.L181:
	.loc 3 596 0
	movl	16(%ebx), %eax
	movl	(%eax), %ebx
.LVL157:
	incl	%ebx
	movl	%ebx, (%eax)
	.loc 3 599 0
	leal	-8(%ebp), %esp
	.loc 3 596 0
	movb	$1, %al
	.loc 3 599 0
	popl	%ebx
	popl	%esi
.LVL158:
	popl	%ebp
	ret
.LVL159:
	.p2align 4,,7
	.p2align 3
.L185:
	.loc 3 591 0
	pushl	%edx
	pushl	%edx
	pushl	$0
	movl	12(%ebp), %eax
	pushl	%eax
	call	nanosleep
	.loc 3 592 0
	movl	4(%ebx), %eax
	popl	%edx
	popl	%ecx
	movl	(%eax), %edx
	pushl	%esi
	pushl	%eax
	call	*12(%edx)
	addl	$16, %esp
	movb	%al, %dl
	xorl	%eax, %eax
	testb	%dl, %dl
	jne	.L181
.LVL160:
	.loc 3 599 0
	leal	-8(%ebp), %esp
	popl	%ebx
.LVL161:
	popl	%esi
.LVL162:
	popl	%ebp
	ret
	.cfi_endproc
.LFE1456:
	.size	_ZN23ConcurrentQueueSpinlockIjE6popAbsERK8timespecPj, .-_ZN23ConcurrentQueueSpinlockIjE6popAbsERK8timespecPj
	.section	.text._ZN23ConcurrentQueueSpinlockIjE3popEPj,"axG",@progbits,_ZN23ConcurrentQueueSpinlockIjE3popEPj,comdat
	.align 2
	.p2align 4,,15
	.weak	_ZN23ConcurrentQueueSpinlockIjE3popEPj
	.type	_ZN23ConcurrentQueueSpinlockIjE3popEPj, @function
_ZN23ConcurrentQueueSpinlockIjE3popEPj:
.LFB1455:
	.loc 3 573 0
	.cfi_startproc
	.cfi_personality 0x0,__gxx_personality_v0
.LVL163:
	pushl	%ebp
.LCFI62:
	.cfi_def_cfa_offset 8
	movl	%esp, %ebp
	.cfi_offset 5, -8
.LCFI63:
	.cfi_def_cfa_register 5
	pushl	%esi
	pushl	%ebx
	.loc 3 573 0
	movl	12(%ebp), %esi
	.cfi_offset 3, -16
	.cfi_offset 6, -12
	movl	8(%ebp), %ebx
	.loc 3 576 0
	jmp	.L187
.LVL164:
	.p2align 4,,7
	.p2align 3
.L188:
	.loc 3 577 0
	pushl	%eax
	pushl	%eax
	pushl	$0
	movl	12(%ebx), %ecx
	pushl	%ecx
	.cfi_escape 0x2e,0x10
	call	nanosleep
	addl	$16, %esp
.L187:
	.loc 3 576 0
	movl	4(%ebx), %eax
	pushl	%edx
	pushl	%edx
	movl	(%eax), %edx
	pushl	%esi
	pushl	%eax
	call	*12(%edx)
	addl	$16, %esp
	testb	%al, %al
	je	.L188
	.loc 3 580 0
	movl	16(%ebx), %eax
	movl	(%eax), %ebx
.LVL165:
	incl	%ebx
	movl	%ebx, (%eax)
	.loc 3 583 0
	leal	-8(%ebp), %esp
	movb	$1, %al
	popl	%ebx
	popl	%esi
.LVL166:
	popl	%ebp
	ret
	.cfi_endproc
.LFE1455:
	.size	_ZN23ConcurrentQueueSpinlockIjE3popEPj, .-_ZN23ConcurrentQueueSpinlockIjE3popEPj
	.section	.text._ZN23ConcurrentQueueSpinlockIjE4pushEj,"axG",@progbits,_ZN23ConcurrentQueueSpinlockIjE4pushEj,comdat
	.align 2
	.p2align 4,,15
	.weak	_ZN23ConcurrentQueueSpinlockIjE4pushEj
	.type	_ZN23ConcurrentQueueSpinlockIjE4pushEj, @function
_ZN23ConcurrentQueueSpinlockIjE4pushEj:
.LFB1454:
	.loc 3 562 0
	.cfi_startproc
	.cfi_personality 0x0,__gxx_personality_v0
.LVL167:
	pushl	%ebp
.LCFI64:
	.cfi_def_cfa_offset 8
	movl	%esp, %ebp
	.cfi_offset 5, -8
.LCFI65:
	.cfi_def_cfa_register 5
	pushl	%esi
	pushl	%ebx
	.loc 3 562 0
	movl	12(%ebp), %esi
	.cfi_offset 3, -16
	.cfi_offset 6, -12
	movl	8(%ebp), %ebx
	.loc 3 565 0
	jmp	.L191
.LVL168:
	.p2align 4,,7
	.p2align 3
.L192:
	.loc 3 566 0
	pushl	%edx
	pushl	%edx
	pushl	$0
	movl	20(%ebx), %eax
	pushl	%eax
	.cfi_escape 0x2e,0x10
	call	nanosleep
	addl	$16, %esp
.L191:
	.loc 3 565 0
	movl	4(%ebx), %eax
	pushl	%ecx
	pushl	%ecx
	movl	(%eax), %edx
	pushl	%esi
	pushl	%eax
	call	*8(%edx)
	addl	$16, %esp
	testb	%al, %al
	je	.L192
	.loc 3 569 0
	movl	8(%ebx), %eax
	movl	(%eax), %edx
	incl	%edx
	movl	%edx, (%eax)
	.loc 3 571 0
	leal	-8(%ebp), %esp
	popl	%ebx
.LVL169:
	popl	%esi
.LVL170:
	popl	%ebp
	ret
	.cfi_endproc
.LFE1454:
	.size	_ZN23ConcurrentQueueSpinlockIjE4pushEj, .-_ZN23ConcurrentQueueSpinlockIjE4pushEj
	.section	.rodata.str1.1
.LC21:
	.string	"Error: posix_memalign()"
	.section	.rodata.str1.4
	.align 4
.LC22:
	.string	"/home/simon/da/lockfree/src/common/LockfreeSingleQueue.h"
.globl _Unwind_Resume
	.section	.text._ZN27LockfreeSingleQueueCacheOptIjEC1Ei,"axG",@progbits,_ZN27LockfreeSingleQueueCacheOptIjEC1Ei,comdat
	.align 2
	.p2align 4,,15
	.weak	_ZN27LockfreeSingleQueueCacheOptIjEC1Ei
	.type	_ZN27LockfreeSingleQueueCacheOptIjEC1Ei, @function
_ZN27LockfreeSingleQueueCacheOptIjEC1Ei:
.LFB1228:
	.loc 5 28 0
	.cfi_startproc
	.cfi_personality 0x0,__gxx_personality_v0
	.cfi_lsda 0x0,.LLSDA1228
.LVL171:
	pushl	%ebp
.LCFI66:
	.cfi_def_cfa_offset 8
	movl	%esp, %ebp
	.cfi_offset 5, -8
.LCFI67:
	.cfi_def_cfa_register 5
	pushl	%esi
	pushl	%ebx
	subl	$16, %esp
	.loc 5 28 0
	movl	8(%ebp), %ebx
	.cfi_offset 3, -16
	.cfi_offset 6, -12
.LBB1380:
	movl	$_ZTV27LockfreeSingleQueueCacheOptIjE+8, (%ebx)
.LEHB0:
.LBB1381:
	.loc 5 29 0
	call	_Z16getCachelineSizev
.LVL172:
	movl	%eax, %esi
.LVL173:
	.loc 5 33 0
	leal	0(,%eax,4), %eax
	pushl	%ecx
	pushl	%eax
	leal	-12(%ebp), %eax
	pushl	%esi
	pushl	%eax
	.cfi_escape 0x2e,0x10
	call	posix_memalign
	addl	$16, %esp
	testl	%eax, %eax
	je	.L195
	.loc 5 34 0
	subl	$12, %esp
	pushl	$.LC21
	pushl	$_ZZN27LockfreeSingleQueueCacheOptIjEC1EiE8__func__
	pushl	$_ZZN27LockfreeSingleQueueCacheOptIjEC1EiE19__PRETTY_FUNCTION__
	pushl	$.LC22
	pushl	$34
	.cfi_escape 0x2e,0x20
	call	vermont_exception
	addl	$32, %esp
.L195:
	.loc 5 37 0
	movl	-12(%ebp), %eax
.LVL174:
	.loc 5 55 0
	subl	$12, %esp
	.loc 5 42 0
	shrl	$2, %esi
.LVL175:
	.loc 5 37 0
	movl	%eax, 4(%ebx)
	.loc 5 38 0
	leal	4(%eax), %edx
	.loc 5 39 0
	movl	$0, 4(%eax)
	.loc 5 38 0
	movl	%edx, 8(%ebx)
	.loc 5 42 0
	leal	(%eax,%esi,4), %edx
	.loc 5 39 0
	movl	$0, (%eax)
	.loc 5 42 0
	movl	%edx, 12(%ebx)
	.loc 5 44 0
	movl	$0, (%edx)
	movl	$0, 4(%edx)
	.loc 5 43 0
	leal	4(%edx), %ecx
	.loc 5 47 0
	leal	(%eax,%esi,8), %edx
	.loc 5 43 0
	movl	%ecx, 16(%ebx)
	.loc 5 47 0
	movl	%edx, 20(%ebx)
	.loc 5 49 0
	movl	$0, (%edx)
	movl	$0, 4(%edx)
	.loc 5 48 0
	leal	4(%edx), %ecx
	.loc 5 52 0
	leal	(%esi,%esi,2), %edx
	.loc 5 48 0
	movl	%ecx, 24(%ebx)
	.loc 5 52 0
	leal	(%eax,%edx,4), %edx
	.loc 5 53 0
	movl	12(%ebp), %eax
	incl	%eax
	.loc 5 52 0
	movl	%edx, 28(%ebx)
	.loc 5 53 0
	movl	%eax, (%edx)
	.loc 5 55 0
	sall	$2, %eax
	pushl	%eax
	.cfi_escape 0x2e,0x10
	call	_Znaj
.LEHE0:
.LVL176:
	movl	%eax, 32(%ebx)
	addl	$16, %esp
.LBE1381:
.LBE1380:
	.loc 5 56 0
	leal	-8(%ebp), %esp
	popl	%ebx
.LVL177:
	popl	%esi
	popl	%ebp
	ret
.LVL178:
.L198:
.L196:
.LBB1384:
.LBB1382:
.LBB1383:
	.loc 2 23 0
	subl	$12, %esp
	movl	$_ZTV9BaseQueueIjE+8, (%ebx)
	pushl	%eax
.LEHB1:
	call	_Unwind_Resume
.LEHE1:
.LBE1383:
.LBE1382:
.LBE1384:
	.cfi_endproc
.LFE1228:
	.size	_ZN27LockfreeSingleQueueCacheOptIjEC1Ei, .-_ZN27LockfreeSingleQueueCacheOptIjEC1Ei
.globl __gxx_personality_v0
	.section	.gcc_except_table,"a",@progbits
.LLSDA1228:
	.byte	0xff
	.byte	0xff
	.byte	0x1
	.uleb128 .LLSDACSE1228-.LLSDACSB1228
.LLSDACSB1228:
	.uleb128 .LEHB0-.LFB1228
	.uleb128 .LEHE0-.LEHB0
	.uleb128 .L198-.LFB1228
	.uleb128 0x0
	.uleb128 .LEHB1-.LFB1228
	.uleb128 .LEHE1-.LEHB1
	.uleb128 0x0
	.uleb128 0x0
.LLSDACSE1228:
	.section	.text._ZN27LockfreeSingleQueueCacheOptIjEC1Ei,"axG",@progbits,_ZN27LockfreeSingleQueueCacheOptIjEC1Ei,comdat
	.section	.text._ZN24LockfreeSingleQueueBasicIjEC1Ej,"axG",@progbits,_ZN24LockfreeSingleQueueBasicIjEC1Ej,comdat
	.align 2
	.p2align 4,,15
	.weak	_ZN24LockfreeSingleQueueBasicIjEC1Ej
	.type	_ZN24LockfreeSingleQueueBasicIjEC1Ej, @function
_ZN24LockfreeSingleQueueBasicIjEC1Ej:
.LFB1231:
	.loc 5 139 0
	.cfi_startproc
	.cfi_personality 0x0,__gxx_personality_v0
	.cfi_lsda 0x0,.LLSDA1231
.LVL179:
	pushl	%ebp
.LCFI68:
	.cfi_def_cfa_offset 8
	movl	%esp, %ebp
	.cfi_offset 5, -8
.LCFI69:
	.cfi_def_cfa_register 5
	pushl	%ebx
	subl	$16, %esp
	.loc 5 139 0
	movl	8(%ebp), %ebx
	.cfi_offset 3, -12
.LBB1395:
	.loc 5 142 0
	movl	12(%ebp), %eax
	incl	%eax
	movl	%eax, 4(%ebx)
	movl	$_ZTV24LockfreeSingleQueueBasicIjE+8, (%ebx)
	movl	$0, 12(%ebx)
	movl	$0, 16(%ebx)
	.loc 5 144 0
	sall	$2, %eax
	pushl	%eax
.LEHB2:
	.cfi_escape 0x2e,0x10
	call	_Znaj
.LEHE2:
.LVL180:
	movl	%eax, 8(%ebx)
	addl	$16, %esp
.LBE1395:
	.loc 5 145 0
	movl	-4(%ebp), %ebx
.LVL181:
	leave
	ret
.LVL182:
.L202:
.L200:
.LBB1398:
.LBB1396:
.LBB1397:
	.loc 2 23 0
	subl	$12, %esp
	movl	$_ZTV9BaseQueueIjE+8, (%ebx)
	pushl	%eax
.LEHB3:
	call	_Unwind_Resume
.LEHE3:
.LBE1397:
.LBE1396:
.LBE1398:
	.cfi_endproc
.LFE1231:
	.size	_ZN24LockfreeSingleQueueBasicIjEC1Ej, .-_ZN24LockfreeSingleQueueBasicIjEC1Ej
	.section	.gcc_except_table
.LLSDA1231:
	.byte	0xff
	.byte	0xff
	.byte	0x1
	.uleb128 .LLSDACSE1231-.LLSDACSB1231
.LLSDACSB1231:
	.uleb128 .LEHB2-.LFB1231
	.uleb128 .LEHE2-.LEHB2
	.uleb128 .L202-.LFB1231
	.uleb128 0x0
	.uleb128 .LEHB3-.LFB1231
	.uleb128 .LEHE3-.LEHB3
	.uleb128 0x0
	.uleb128 0x0
.LLSDACSE1231:
	.section	.text._ZN24LockfreeSingleQueueBasicIjEC1Ej,"axG",@progbits,_ZN24LockfreeSingleQueueBasicIjEC1Ej,comdat
	.section	.text._ZN32LockfreeSingleQueueCacheOptLocalIjEC1Ej,"axG",@progbits,_ZN32LockfreeSingleQueueCacheOptLocalIjEC1Ej,comdat
	.align 2
	.p2align 4,,15
	.weak	_ZN32LockfreeSingleQueueCacheOptLocalIjEC1Ej
	.type	_ZN32LockfreeSingleQueueCacheOptLocalIjEC1Ej, @function
_ZN32LockfreeSingleQueueCacheOptLocalIjEC1Ej:
.LFB1234:
	.loc 5 210 0
	.cfi_startproc
	.cfi_personality 0x0,__gxx_personality_v0
	.cfi_lsda 0x0,.LLSDA1234
.LVL183:
	pushl	%ebp
.LCFI70:
	.cfi_def_cfa_offset 8
	movl	%esp, %ebp
	.cfi_offset 5, -8
.LCFI71:
	.cfi_def_cfa_register 5
	pushl	%ebx
	subl	$16, %esp
	.loc 5 210 0
	movl	8(%ebp), %ebx
	.cfi_offset 3, -12
.LBB1409:
	.loc 5 214 0
	movl	12(%ebp), %eax
	incl	%eax
	movl	$0, 68(%ebx)
	movl	%eax, 260(%ebx)
	movl	$_ZTV32LockfreeSingleQueueCacheOptLocalIjE+8, (%ebx)
	movl	$0, 72(%ebx)
	movl	$0, 132(%ebx)
	movl	$0, 136(%ebx)
	movl	$0, 196(%ebx)
	movl	$0, 200(%ebx)
	.loc 5 216 0
	sall	$2, %eax
	pushl	%eax
.LEHB4:
	.cfi_escape 0x2e,0x10
	call	_Znaj
.LEHE4:
.LVL184:
	movl	%eax, 264(%ebx)
	addl	$16, %esp
.LBE1409:
	.loc 5 217 0
	movl	-4(%ebp), %ebx
.LVL185:
	leave
	ret
.LVL186:
.L206:
.L204:
.LBB1412:
.LBB1410:
.LBB1411:
	.loc 2 23 0
	subl	$12, %esp
	movl	$_ZTV9BaseQueueIjE+8, (%ebx)
	pushl	%eax
.LEHB5:
	call	_Unwind_Resume
.LEHE5:
.LBE1411:
.LBE1410:
.LBE1412:
	.cfi_endproc
.LFE1234:
	.size	_ZN32LockfreeSingleQueueCacheOptLocalIjEC1Ej, .-_ZN32LockfreeSingleQueueCacheOptLocalIjEC1Ej
	.section	.gcc_except_table
.LLSDA1234:
	.byte	0xff
	.byte	0xff
	.byte	0x1
	.uleb128 .LLSDACSE1234-.LLSDACSB1234
.LLSDACSB1234:
	.uleb128 .LEHB4-.LFB1234
	.uleb128 .LEHE4-.LEHB4
	.uleb128 .L206-.LFB1234
	.uleb128 0x0
	.uleb128 .LEHB5-.LFB1234
	.uleb128 .LEHE5-.LEHB5
	.uleb128 0x0
	.uleb128 0x0
.LLSDACSE1234:
	.section	.text._ZN32LockfreeSingleQueueCacheOptLocalIjEC1Ej,"axG",@progbits,_ZN32LockfreeSingleQueueCacheOptLocalIjEC1Ej,comdat
	.section	.text._ZN18LockfreeMultiQueueIjEC1Ej,"axG",@progbits,_ZN18LockfreeMultiQueueIjEC1Ej,comdat
	.align 2
	.p2align 4,,15
	.weak	_ZN18LockfreeMultiQueueIjEC1Ej
	.type	_ZN18LockfreeMultiQueueIjEC1Ej, @function
_ZN18LockfreeMultiQueueIjEC1Ej:
.LFB1237:
	.loc 4 30 0
	.cfi_startproc
	.cfi_personality 0x0,__gxx_personality_v0
	.cfi_lsda 0x0,.LLSDA1237
.LVL187:
	pushl	%ebp
.LCFI72:
	.cfi_def_cfa_offset 8
	movl	%esp, %ebp
	.cfi_offset 5, -8
.LCFI73:
	.cfi_def_cfa_register 5
	pushl	%esi
	pushl	%ebx
.LBB1427:
	.loc 4 32 0
	movl	12(%ebp), %eax
.LBE1427:
	.loc 4 30 0
	movl	8(%ebp), %ebx
	.cfi_offset 3, -16
	.cfi_offset 6, -12
.LBB1435:
	.loc 4 32 0
	incl	%eax
.LBB1430:
	.loc 4 37 0
	subl	$12, %esp
.LBE1430:
	.loc 4 32 0
	movl	$0, 4(%ebx)
	movl	%eax, 20(%ebx)
	movl	$0, 8(%ebx)
	movl	$_ZTV18LockfreeMultiQueueIjE+8, (%ebx)
.LBB1429:
	.loc 4 37 0
	sall	$3, %eax
.LBE1429:
	.loc 4 32 0
	movl	$0, 12(%ebx)
	movl	$0, 16(%ebx)
.LBB1428:
	.loc 4 37 0
	pushl	%eax
.LEHB6:
	.cfi_escape 0x2e,0x10
	call	_Znaj
.LEHE6:
.LVL188:
.LBB1431:
	.loc 4 38 0
	movl	20(%ebx), %esi
.LBE1431:
	.loc 4 37 0
	addl	$16, %esp
	movl	%eax, 24(%ebx)
.LBB1432:
	.loc 4 38 0
	testl	%esi, %esi
	je	.L211
	xorl	%ecx, %ecx
	xorl	%edx, %edx
.LVL189:
	jmp	.L209
	.p2align 4,,7
	.p2align 3
.L213:
	movl	24(%ebx), %eax
.L209:
	incl	%edx
	.loc 4 39 0
	movl	$0, (%eax,%ecx,8)
	movl	$0, 4(%eax,%ecx,8)
	.loc 4 38 0
	cmpl	%esi, %edx
	movl	%edx, %ecx
	jb	.L213
.L211:
.LBE1432:
.LBE1428:
.LBE1435:
	.loc 4 41 0
	leal	-8(%ebp), %esp
	popl	%ebx
.LVL190:
	popl	%esi
	popl	%ebp
	ret
.LVL191:
.L212:
.L210:
.LBB1436:
.LBB1433:
.LBB1434:
	.loc 2 23 0
	subl	$12, %esp
	movl	$_ZTV9BaseQueueIjE+8, (%ebx)
	pushl	%eax
.LEHB7:
	call	_Unwind_Resume
.LEHE7:
.LBE1434:
.LBE1433:
.LBE1436:
	.cfi_endproc
.LFE1237:
	.size	_ZN18LockfreeMultiQueueIjEC1Ej, .-_ZN18LockfreeMultiQueueIjEC1Ej
	.section	.gcc_except_table
.LLSDA1237:
	.byte	0xff
	.byte	0xff
	.byte	0x1
	.uleb128 .LLSDACSE1237-.LLSDACSB1237
.LLSDACSB1237:
	.uleb128 .LEHB6-.LFB1237
	.uleb128 .LEHE6-.LEHB6
	.uleb128 .L212-.LFB1237
	.uleb128 0x0
	.uleb128 .LEHB7-.LFB1237
	.uleb128 .LEHE7-.LEHB7
	.uleb128 0x0
	.uleb128 0x0
.LLSDACSE1237:
	.section	.text._ZN18LockfreeMultiQueueIjEC1Ej,"axG",@progbits,_ZN18LockfreeMultiQueueIjEC1Ej,comdat
	.section	.text._ZN27LockfreeSingleQueueCacheOptIjED0Ev,"axG",@progbits,_ZN27LockfreeSingleQueueCacheOptIjED0Ev,comdat
	.align 2
	.p2align 4,,15
	.weak	_ZN27LockfreeSingleQueueCacheOptIjED0Ev
	.type	_ZN27LockfreeSingleQueueCacheOptIjED0Ev, @function
_ZN27LockfreeSingleQueueCacheOptIjED0Ev:
.LFB1446:
	.loc 5 58 0
	.cfi_startproc
	.cfi_personality 0x0,__gxx_personality_v0
.LVL192:
	pushl	%ebp
.LCFI74:
	.cfi_def_cfa_offset 8
	movl	%esp, %ebp
	.cfi_offset 5, -8
.LCFI75:
	.cfi_def_cfa_register 5
	pushl	%ebx
	subl	$16, %esp
	.loc 5 58 0
	movl	8(%ebp), %ebx
	.cfi_offset 3, -12
	.loc 5 59 0
	movl	4(%ebx), %eax
	.loc 5 61 0
	movl	$_ZTV27LockfreeSingleQueueCacheOptIjE+8, (%ebx)
	.loc 5 59 0
	pushl	%eax
	.cfi_escape 0x2e,0x10
	call	free
	.loc 5 60 0
	movl	32(%ebx), %eax
	addl	$16, %esp
	testl	%eax, %eax
	je	.L215
.LVL193:
	subl	$12, %esp
	pushl	%eax
	call	_ZdaPv
	addl	$16, %esp
.L215:
.LBB1437:
.LBB1438:
	.loc 2 23 0
	movl	$_ZTV9BaseQueueIjE+8, (%ebx)
.LBE1438:
.LBE1437:
	.loc 5 60 0
	movl	%ebx, 8(%ebp)
	.loc 5 61 0
	movl	-4(%ebp), %ebx
.LVL194:
	leave
	.loc 5 60 0
	.cfi_escape 0x2e,0x4
	jmp	_ZdlPv
	.cfi_endproc
.LFE1446:
	.size	_ZN27LockfreeSingleQueueCacheOptIjED0Ev, .-_ZN27LockfreeSingleQueueCacheOptIjED0Ev
	.section	.text._ZN27LockfreeSingleQueueCacheOptIjED1Ev,"axG",@progbits,_ZN27LockfreeSingleQueueCacheOptIjED1Ev,comdat
	.align 2
	.p2align 4,,15
	.weak	_ZN27LockfreeSingleQueueCacheOptIjED1Ev
	.type	_ZN27LockfreeSingleQueueCacheOptIjED1Ev, @function
_ZN27LockfreeSingleQueueCacheOptIjED1Ev:
.LFB1445:
	.loc 5 58 0
	.cfi_startproc
	.cfi_personality 0x0,__gxx_personality_v0
.LVL195:
	pushl	%ebp
.LCFI76:
	.cfi_def_cfa_offset 8
	movl	%esp, %ebp
	.cfi_offset 5, -8
.LCFI77:
	.cfi_def_cfa_register 5
	pushl	%ebx
	subl	$16, %esp
	.loc 5 58 0
	movl	8(%ebp), %ebx
	.cfi_offset 3, -12
	.loc 5 61 0
	movl	$_ZTV27LockfreeSingleQueueCacheOptIjE+8, (%ebx)
	.loc 5 59 0
	movl	4(%ebx), %edx
	pushl	%edx
	.cfi_escape 0x2e,0x10
	call	free
	.loc 5 60 0
	movl	32(%ebx), %eax
	addl	$16, %esp
	testl	%eax, %eax
	je	.L218
.LVL196:
	subl	$12, %esp
	pushl	%eax
	call	_ZdaPv
	addl	$16, %esp
.L218:
.LBB1439:
.LBB1440:
	.loc 2 23 0
	movl	$_ZTV9BaseQueueIjE+8, (%ebx)
.LBE1440:
.LBE1439:
	.loc 5 61 0
	movl	-4(%ebp), %ebx
.LVL197:
	leave
	ret
	.cfi_endproc
.LFE1445:
	.size	_ZN27LockfreeSingleQueueCacheOptIjED1Ev, .-_ZN27LockfreeSingleQueueCacheOptIjED1Ev
	.section	.text._ZN24LockfreeSingleQueueBasicIjED0Ev,"axG",@progbits,_ZN24LockfreeSingleQueueBasicIjED0Ev,comdat
	.align 2
	.p2align 4,,15
	.weak	_ZN24LockfreeSingleQueueBasicIjED0Ev
	.type	_ZN24LockfreeSingleQueueBasicIjED0Ev, @function
_ZN24LockfreeSingleQueueBasicIjED0Ev:
.LFB1440:
	.loc 5 147 0
	.cfi_startproc
	.cfi_personality 0x0,__gxx_personality_v0
.LVL198:
	pushl	%ebp
.LCFI78:
	.cfi_def_cfa_offset 8
	movl	%esp, %ebp
	.cfi_offset 5, -8
.LCFI79:
	.cfi_def_cfa_register 5
	pushl	%ebx
	subl	$4, %esp
	.loc 5 147 0
	movl	8(%ebp), %ebx
	.cfi_offset 3, -12
	.loc 5 148 0
	movl	8(%ebx), %eax
	.loc 5 149 0
	movl	$_ZTV24LockfreeSingleQueueBasicIjE+8, (%ebx)
	.loc 5 148 0
	testl	%eax, %eax
	je	.L221
.LVL199:
	subl	$12, %esp
	pushl	%eax
	.cfi_escape 0x2e,0x10
	call	_ZdaPv
	addl	$16, %esp
.L221:
.LBB1441:
.LBB1442:
	.loc 2 23 0
	movl	$_ZTV9BaseQueueIjE+8, (%ebx)
.LBE1442:
.LBE1441:
	.loc 5 148 0
	movl	%ebx, 8(%ebp)
	.loc 5 149 0
	movl	-4(%ebp), %ebx
.LVL200:
	leave
	.loc 5 148 0
	.cfi_escape 0x2e,0x4
	jmp	_ZdlPv
	.cfi_endproc
.LFE1440:
	.size	_ZN24LockfreeSingleQueueBasicIjED0Ev, .-_ZN24LockfreeSingleQueueBasicIjED0Ev
	.section	.text._ZN24LockfreeSingleQueueBasicIjED1Ev,"axG",@progbits,_ZN24LockfreeSingleQueueBasicIjED1Ev,comdat
	.align 2
	.p2align 4,,15
	.weak	_ZN24LockfreeSingleQueueBasicIjED1Ev
	.type	_ZN24LockfreeSingleQueueBasicIjED1Ev, @function
_ZN24LockfreeSingleQueueBasicIjED1Ev:
.LFB1439:
	.loc 5 147 0
	.cfi_startproc
	.cfi_personality 0x0,__gxx_personality_v0
.LVL201:
	pushl	%ebp
.LCFI80:
	.cfi_def_cfa_offset 8
	movl	%esp, %ebp
	.cfi_offset 5, -8
.LCFI81:
	.cfi_def_cfa_register 5
	pushl	%ebx
	subl	$4, %esp
	.loc 5 147 0
	movl	8(%ebp), %ebx
	.cfi_offset 3, -12
	.loc 5 148 0
	movl	8(%ebx), %eax
	.loc 5 149 0
	movl	$_ZTV24LockfreeSingleQueueBasicIjE+8, (%ebx)
	.loc 5 148 0
	testl	%eax, %eax
	je	.L224
.LVL202:
	subl	$12, %esp
	pushl	%eax
	.cfi_escape 0x2e,0x10
	call	_ZdaPv
	addl	$16, %esp
.L224:
.LBB1443:
.LBB1444:
	.loc 2 23 0
	movl	$_ZTV9BaseQueueIjE+8, (%ebx)
.LBE1444:
.LBE1443:
	.loc 5 149 0
	movl	-4(%ebp), %ebx
.LVL203:
	leave
	ret
	.cfi_endproc
.LFE1439:
	.size	_ZN24LockfreeSingleQueueBasicIjED1Ev, .-_ZN24LockfreeSingleQueueBasicIjED1Ev
	.section	.text._ZN32LockfreeSingleQueueCacheOptLocalIjED0Ev,"axG",@progbits,_ZN32LockfreeSingleQueueCacheOptLocalIjED0Ev,comdat
	.align 2
	.p2align 4,,15
	.weak	_ZN32LockfreeSingleQueueCacheOptLocalIjED0Ev
	.type	_ZN32LockfreeSingleQueueCacheOptLocalIjED0Ev, @function
_ZN32LockfreeSingleQueueCacheOptLocalIjED0Ev:
.LFB1434:
	.loc 5 219 0
	.cfi_startproc
	.cfi_personality 0x0,__gxx_personality_v0
.LVL204:
	pushl	%ebp
.LCFI82:
	.cfi_def_cfa_offset 8
	movl	%esp, %ebp
	.cfi_offset 5, -8
.LCFI83:
	.cfi_def_cfa_register 5
	pushl	%ebx
	subl	$4, %esp
	.loc 5 219 0
	movl	8(%ebp), %ebx
	.cfi_offset 3, -12
	.loc 5 220 0
	movl	264(%ebx), %eax
	.loc 5 221 0
	movl	$_ZTV32LockfreeSingleQueueCacheOptLocalIjE+8, (%ebx)
	.loc 5 220 0
	testl	%eax, %eax
	je	.L227
.LVL205:
	subl	$12, %esp
	pushl	%eax
	.cfi_escape 0x2e,0x10
	call	_ZdaPv
	addl	$16, %esp
.L227:
.LBB1445:
.LBB1446:
	.loc 2 23 0
	movl	$_ZTV9BaseQueueIjE+8, (%ebx)
.LBE1446:
.LBE1445:
	.loc 5 220 0
	movl	%ebx, 8(%ebp)
	.loc 5 221 0
	movl	-4(%ebp), %ebx
.LVL206:
	leave
	.loc 5 220 0
	.cfi_escape 0x2e,0x4
	jmp	_ZdlPv
	.cfi_endproc
.LFE1434:
	.size	_ZN32LockfreeSingleQueueCacheOptLocalIjED0Ev, .-_ZN32LockfreeSingleQueueCacheOptLocalIjED0Ev
	.section	.text._ZN32LockfreeSingleQueueCacheOptLocalIjED1Ev,"axG",@progbits,_ZN32LockfreeSingleQueueCacheOptLocalIjED1Ev,comdat
	.align 2
	.p2align 4,,15
	.weak	_ZN32LockfreeSingleQueueCacheOptLocalIjED1Ev
	.type	_ZN32LockfreeSingleQueueCacheOptLocalIjED1Ev, @function
_ZN32LockfreeSingleQueueCacheOptLocalIjED1Ev:
.LFB1433:
	.loc 5 219 0
	.cfi_startproc
	.cfi_personality 0x0,__gxx_personality_v0
.LVL207:
	pushl	%ebp
.LCFI84:
	.cfi_def_cfa_offset 8
	movl	%esp, %ebp
	.cfi_offset 5, -8
.LCFI85:
	.cfi_def_cfa_register 5
	pushl	%ebx
	subl	$4, %esp
	.loc 5 219 0
	movl	8(%ebp), %ebx
	.cfi_offset 3, -12
	.loc 5 220 0
	movl	264(%ebx), %eax
	.loc 5 221 0
	movl	$_ZTV32LockfreeSingleQueueCacheOptLocalIjE+8, (%ebx)
	.loc 5 220 0
	testl	%eax, %eax
	je	.L230
.LVL208:
	subl	$12, %esp
	pushl	%eax
	.cfi_escape 0x2e,0x10
	call	_ZdaPv
	addl	$16, %esp
.L230:
.LBB1447:
.LBB1448:
	.loc 2 23 0
	movl	$_ZTV9BaseQueueIjE+8, (%ebx)
.LBE1448:
.LBE1447:
	.loc 5 221 0
	movl	-4(%ebp), %ebx
.LVL209:
	leave
	ret
	.cfi_endproc
.LFE1433:
	.size	_ZN32LockfreeSingleQueueCacheOptLocalIjED1Ev, .-_ZN32LockfreeSingleQueueCacheOptLocalIjED1Ev
	.section	.text._ZN18LockfreeMultiQueueIjED0Ev,"axG",@progbits,_ZN18LockfreeMultiQueueIjED0Ev,comdat
	.align 2
	.p2align 4,,15
	.weak	_ZN18LockfreeMultiQueueIjED0Ev
	.type	_ZN18LockfreeMultiQueueIjED0Ev, @function
_ZN18LockfreeMultiQueueIjED0Ev:
.LFB1427:
	.loc 4 43 0
	.cfi_startproc
	.cfi_personality 0x0,__gxx_personality_v0
.LVL210:
	pushl	%ebp
.LCFI86:
	.cfi_def_cfa_offset 8
	movl	%esp, %ebp
	.cfi_offset 5, -8
.LCFI87:
	.cfi_def_cfa_register 5
	pushl	%ebx
	subl	$4, %esp
	.loc 4 43 0
	movl	8(%ebp), %ebx
	.cfi_offset 3, -12
	.loc 4 44 0
	movl	24(%ebx), %eax
	.loc 4 45 0
	movl	$_ZTV18LockfreeMultiQueueIjE+8, (%ebx)
	.loc 4 44 0
	testl	%eax, %eax
	je	.L233
.LVL211:
	subl	$12, %esp
	pushl	%eax
	.cfi_escape 0x2e,0x10
	call	_ZdaPv
	addl	$16, %esp
.L233:
.LBB1449:
.LBB1450:
	.loc 2 23 0
	movl	$_ZTV9BaseQueueIjE+8, (%ebx)
.LBE1450:
.LBE1449:
	.loc 4 44 0
	movl	%ebx, 8(%ebp)
	.loc 4 45 0
	movl	-4(%ebp), %ebx
.LVL212:
	leave
	.loc 4 44 0
	.cfi_escape 0x2e,0x4
	jmp	_ZdlPv
	.cfi_endproc
.LFE1427:
	.size	_ZN18LockfreeMultiQueueIjED0Ev, .-_ZN18LockfreeMultiQueueIjED0Ev
	.section	.text._ZN18LockfreeMultiQueueIjED1Ev,"axG",@progbits,_ZN18LockfreeMultiQueueIjED1Ev,comdat
	.align 2
	.p2align 4,,15
	.weak	_ZN18LockfreeMultiQueueIjED1Ev
	.type	_ZN18LockfreeMultiQueueIjED1Ev, @function
_ZN18LockfreeMultiQueueIjED1Ev:
.LFB1426:
	.loc 4 43 0
	.cfi_startproc
	.cfi_personality 0x0,__gxx_personality_v0
.LVL213:
	pushl	%ebp
.LCFI88:
	.cfi_def_cfa_offset 8
	movl	%esp, %ebp
	.cfi_offset 5, -8
.LCFI89:
	.cfi_def_cfa_register 5
	pushl	%ebx
	subl	$4, %esp
	.loc 4 43 0
	movl	8(%ebp), %ebx
	.cfi_offset 3, -12
	.loc 4 44 0
	movl	24(%ebx), %eax
	.loc 4 45 0
	movl	$_ZTV18LockfreeMultiQueueIjE+8, (%ebx)
	.loc 4 44 0
	testl	%eax, %eax
	je	.L236
.LVL214:
	subl	$12, %esp
	pushl	%eax
	.cfi_escape 0x2e,0x10
	call	_ZdaPv
	addl	$16, %esp
.L236:
.LBB1451:
.LBB1452:
	.loc 2 23 0
	movl	$_ZTV9BaseQueueIjE+8, (%ebx)
.LBE1452:
.LBE1451:
	.loc 4 45 0
	movl	-4(%ebp), %ebx
.LVL215:
	leave
	ret
	.cfi_endproc
.LFE1426:
	.size	_ZN18LockfreeMultiQueueIjED1Ev, .-_ZN18LockfreeMultiQueueIjED1Ev
.globl __umoddi3
	.section	.text._ZN18LockfreeMultiQueueIjE3popEPj,"axG",@progbits,_ZN18LockfreeMultiQueueIjE3popEPj,comdat
	.align 2
	.p2align 4,,15
	.weak	_ZN18LockfreeMultiQueueIjE3popEPj
	.type	_ZN18LockfreeMultiQueueIjE3popEPj, @function
_ZN18LockfreeMultiQueueIjE3popEPj:
.LFB1429:
	.loc 4 90 0
	.cfi_startproc
	.cfi_personality 0x0,__gxx_personality_v0
.LVL216:
	pushl	%ebp
.LCFI90:
	.cfi_def_cfa_offset 8
	movl	%esp, %ebp
	.cfi_offset 5, -8
.LCFI91:
	.cfi_def_cfa_register 5
	pushl	%edi
	pushl	%esi
	pushl	%ebx
	subl	$124, %esp
	.loc 4 90 0
	movl	8(%ebp), %edi
	.cfi_offset 3, -20
	.cfi_offset 6, -16
	.cfi_offset 7, -12
.LBB1453:
	.loc 4 106 0
	movl	%edi, -124(%ebp)
.LBE1453:
	.loc 4 90 0
	movl	24(%edi), %eax
	movl	20(%edi), %edx
.LBB1454:
	.loc 4 119 0
	leal	4(%edi), %ecx
	.loc 4 106 0
	leal	12(%edi), %ebx
.LBE1454:
	.loc 4 90 0
	movl	%eax, -68(%ebp)
	movl	%edx, -80(%ebp)
.LBB1455:
	.loc 4 119 0
	movl	%ecx, -92(%ebp)
	.loc 4 106 0
	movl	%ebx, -88(%ebp)
.LVL217:
	.p2align 4,,7
	.p2align 3
.L257:
	.loc 4 95 0
	movl	-124(%ebp), %esi
	.loc 4 96 0
	movl	-80(%ebp), %ebx
	.loc 4 95 0
	movl	4(%esi), %eax
.LVL218:
	movl	8(%esi), %edx
.LVL219:
	movl	%eax, -32(%ebp)
	movl	%edx, -28(%ebp)
	.loc 4 96 0
	movl	-32(%ebp), %eax
.LVL220:
	xorl	%esi, %esi
	movl	-28(%ebp), %edx
.LVL221:
	pushl	%esi
	pushl	%ebx
	pushl	%edx
	pushl	%eax
	.cfi_escape 0x2e,0x10
	call	__umoddi3
	movl	-68(%ebp), %edi
	.loc 4 97 0
	movl	-124(%ebp), %ecx
	.loc 4 96 0
	addl	$16, %esp
	movl	4(%edi,%eax,8), %edx
.LVL222:
	movl	(%edi,%eax,8), %eax
.LVL223:
	movl	%eax, -48(%ebp)
	movl	%edx, -44(%ebp)
	.loc 4 97 0
	movl	12(%ecx), %eax
.LVL224:
	movl	16(%ecx), %edx
.LVL225:
	movl	%eax, -40(%ebp)
	movl	%edx, -36(%ebp)
	.loc 4 98 0
	movl	4(%ecx), %eax
.LVL226:
	movl	8(%ecx), %edx
.LVL227:
	movl	%eax, -112(%ebp)
	movl	%edx, -108(%ebp)
	movl	-32(%ebp), %eax
	movl	-28(%ebp), %edx
	movl	%edx, -60(%ebp)
	movl	%eax, -64(%ebp)
	movl	-60(%ebp), %ecx
	movl	-108(%ebp), %eax
	xorl	%eax, %ecx
	movl	-64(%ebp), %edx
	movl	-112(%ebp), %eax
	xorl	%edx, %eax
	orl	%eax, %ecx
	movl	%ecx, -116(%ebp)
	jne	.L257
	.loc 4 101 0
	movl	-124(%ebp), %ecx
	movl	12(%ecx), %edx
	movl	16(%ecx), %ecx
	movl	%edx, -112(%ebp)
	movl	-32(%ebp), %eax
	movl	-28(%ebp), %edx
	movl	%eax, -64(%ebp)
	movl	%edx, -60(%ebp)
	movl	%ecx, -108(%ebp)
	movl	-60(%ebp), %edx
	movl	-112(%ebp), %eax
	xorl	%ecx, %edx
	movl	-64(%ebp), %ecx
	xorl	%ecx, %eax
	orl	%edx, %eax
	je	.L259
	.loc 4 110 0
	movl	-48(%ebp), %eax
	movl	-44(%ebp), %edx
	testl	%edx, %edx
	jne	.L260
	.loc 4 118 0
	movl	-32(%ebp), %eax
	movl	-28(%ebp), %edx
	pushl	%esi
	pushl	%ebx
	pushl	%edx
	pushl	%eax
	call	__umoddi3
	movl	-68(%ebp), %ebx
	addl	$16, %esp
	movl	4(%ebx,%eax,8), %ecx
	testl	%ecx, %ecx
	jne	.L257
	.loc 4 119 0
	movl	-32(%ebp), %esi
	movl	-28(%ebp), %edi
	addl	$1, %esi
	movl	-32(%ebp), %eax
	adcl	$0, %edi
	movl	%esi, %ebx
	movl	-28(%ebp), %edx
	movl	%edi, %ecx
	movl	-92(%ebp), %esi
.L258:
	lock cmpxchg8b	(%esi)
	movl	-124(%ebp), %edi
	movl	-124(%ebp), %eax
	movl	24(%edi), %edi
	movl	20(%eax), %eax
	movl	%edi, -68(%ebp)
	movl	%eax, -80(%ebp)
	jmp	.L257
	.p2align 4,,7
	.p2align 3
.L259:
	.loc 4 102 0
	movl	-40(%ebp), %eax
	movl	-36(%ebp), %edx
	pushl	%esi
	pushl	%ebx
	pushl	%edx
	pushl	%eax
	call	__umoddi3
	addl	$16, %esp
	movl	4(%edi,%eax,8), %ebx
	testl	%ebx, %ebx
	jne	.L241
	.loc 4 103 0
	movl	-124(%ebp), %edx
	movl	12(%edx), %ecx
	movl	16(%edx), %ebx
	movl	%ebx, %esi
	movl	-40(%ebp), %eax
	movl	-36(%ebp), %edx
	xorl	%ecx, %eax
	xorl	%edx, %esi
	orl	%eax, %esi
	je	.L242
.L241:
	.loc 4 106 0
	movl	-40(%ebp), %esi
	movl	-36(%ebp), %edi
	addl	$1, %esi
	movl	-40(%ebp), %eax
	adcl	$0, %edi
	movl	%esi, %ebx
	movl	-36(%ebp), %edx
	movl	%edi, %ecx
	movl	-88(%ebp), %esi
	jmp	.L258
	.p2align 4,,7
	.p2align 3
.L260:
	.loc 4 111 0
	movl	-48(%ebp), %edx
	movl	-44(%ebp), %ecx
	movl	%edx, -80(%ebp)
	movl	-48(%ebp), %eax
	movl	-44(%ebp), %edx
	movl	%ecx, -76(%ebp)
	movl	%eax, -64(%ebp)
	movl	%edx, -60(%ebp)
	movl	-32(%ebp), %eax
	movl	-28(%ebp), %edx
	pushl	%esi
	pushl	%ebx
	pushl	%edx
	pushl	%eax
	call	__umoddi3
	movl	-80(%ebp), %edx
	incl	%edx
	movl	%eax, %esi
	movl	%edx, -80(%ebp)
	movl	-68(%ebp), %edi
	movl	%eax, -84(%ebp)
	addl	$16, %esp
	movl	-64(%ebp), %eax
	movl	-60(%ebp), %edx
	movl	-80(%ebp), %ebx
	movl	-116(%ebp), %ecx
	lock cmpxchg8b	(%edi,%esi,8)
	je	.L248
	movl	-124(%ebp), %eax
	movl	-124(%ebp), %edx
	movl	24(%eax), %eax
	movl	20(%edx), %edx
	movl	%eax, -68(%ebp)
	movl	%edx, -80(%ebp)
	jmp	.L257
	.p2align 4,,7
	.p2align 3
.L242:
.LBE1455:
	.loc 4 122 0
	leal	-12(%ebp), %esp
.LBB1456:
	.loc 4 119 0
	xorl	%eax, %eax
.LBE1456:
	.loc 4 122 0
	popl	%ebx
	popl	%esi
	popl	%edi
	popl	%ebp
	ret
	.p2align 4,,7
	.p2align 3
.L248:
.LBB1457:
	.loc 4 112 0
	movl	-32(%ebp), %ecx
	movl	-124(%ebp), %edi
.LVL228:
	movl	%ecx, -64(%ebp)
	addl	$4, %edi
.LVL229:
	addl	$1, -64(%ebp)
	movl	-28(%ebp), %ebx
	movl	-32(%ebp), %eax
	movl	%ebx, -60(%ebp)
	movl	-28(%ebp), %edx
	adcl	$0, -60(%ebp)
	movl	-64(%ebp), %ebx
	movl	-60(%ebp), %ecx
	lock cmpxchg8b	(%edi)
	.loc 4 113 0
	movl	-48(%ebp), %eax
	movl	12(%ebp), %eax
	movl	-44(%ebp), %edx
	movl	%edx, (%eax)
.LBE1457:
	.loc 4 122 0
	leal	-12(%ebp), %esp
.LBB1458:
	.loc 4 113 0
	movb	$1, %al
.LBE1458:
	.loc 4 122 0
	popl	%ebx
	popl	%esi
	popl	%edi
	popl	%ebp
	ret
	.cfi_endproc
.LFE1429:
	.size	_ZN18LockfreeMultiQueueIjE3popEPj, .-_ZN18LockfreeMultiQueueIjE3popEPj
	.section	.text._ZN18LockfreeMultiQueueIjE4pushEj,"axG",@progbits,_ZN18LockfreeMultiQueueIjE4pushEj,comdat
	.align 2
	.p2align 4,,15
	.weak	_ZN18LockfreeMultiQueueIjE4pushEj
	.type	_ZN18LockfreeMultiQueueIjE4pushEj, @function
_ZN18LockfreeMultiQueueIjE4pushEj:
.LFB1428:
	.loc 4 52 0
	.cfi_startproc
	.cfi_personality 0x0,__gxx_personality_v0
.LVL230:
	pushl	%ebp
.LCFI92:
	.cfi_def_cfa_offset 8
	movl	%esp, %ebp
	.cfi_offset 5, -8
.LCFI93:
	.cfi_def_cfa_register 5
	pushl	%edi
	pushl	%esi
	pushl	%ebx
	subl	$140, %esp
.LBB1459:
.LBB1460:
.LBB1461:
	.loc 4 169 0
	movl	$0, -96(%ebp)
.LBE1461:
.LBE1460:
.LBE1459:
	.loc 4 52 0
	movl	8(%ebp), %edi
	.cfi_offset 3, -20
	.cfi_offset 6, -16
	.cfi_offset 7, -12
.LBB1464:
.LBB1463:
.LBB1462:
	.loc 4 169 0
	movl	12(%ebp), %ecx
	movl	%ecx, -92(%ebp)
.LBE1462:
.LBE1463:
	.loc 4 68 0
	movl	%edi, -140(%ebp)
.LBE1464:
	.loc 4 52 0
	movl	24(%edi), %eax
	movl	20(%edi), %edx
.LBB1465:
	.loc 4 80 0
	leal	12(%edi), %ebx
	.loc 4 68 0
	leal	4(%edi), %esi
.LBE1465:
	.loc 4 52 0
	movl	%eax, -68(%ebp)
	movl	%edx, -80(%ebp)
.LBB1466:
	.loc 4 80 0
	movl	%ebx, -88(%ebp)
	.loc 4 68 0
	movl	%esi, -84(%ebp)
.LVL231:
	.p2align 4,,7
	.p2align 3
.L280:
	.loc 4 57 0
	movl	-140(%ebp), %edi
	.loc 4 58 0
	movl	-80(%ebp), %ebx
	xorl	%esi, %esi
	.loc 4 57 0
	movl	12(%edi), %eax
.LVL232:
	movl	16(%edi), %edx
.LVL233:
	movl	%eax, -32(%ebp)
	movl	%edx, -28(%ebp)
	.loc 4 58 0
	movl	-32(%ebp), %eax
.LVL234:
	movl	-28(%ebp), %edx
.LVL235:
	pushl	%esi
	pushl	%ebx
	pushl	%edx
	pushl	%eax
	.cfi_escape 0x2e,0x10
	call	__umoddi3
	movl	-68(%ebp), %ecx
	addl	$16, %esp
	movl	4(%ecx,%eax,8), %edx
.LVL236:
	movl	(%ecx,%eax,8), %eax
.LVL237:
	movl	%eax, -48(%ebp)
	movl	%edx, -44(%ebp)
	.loc 4 59 0
	movl	4(%edi), %eax
.LVL238:
	movl	8(%edi), %edx
.LVL239:
	movl	%eax, -40(%ebp)
	movl	%edx, -36(%ebp)
	.loc 4 60 0
	movl	12(%edi), %eax
.LVL240:
	movl	16(%edi), %edx
.LVL241:
	movl	%eax, -112(%ebp)
	movl	%edx, -108(%ebp)
	movl	-32(%ebp), %eax
	movl	-28(%ebp), %edx
	movl	%edx, -60(%ebp)
	movl	%eax, -64(%ebp)
	movl	-60(%ebp), %ecx
	movl	-108(%ebp), %eax
	xorl	%eax, %ecx
	movl	-64(%ebp), %edx
	movl	-112(%ebp), %eax
	xorl	%edx, %eax
	orl	%eax, %ecx
	jne	.L280
	.loc 4 63 0
	movl	4(%edi), %edx
	movl	8(%edi), %ecx
	movl	%edx, -112(%ebp)
	movl	%ecx, -108(%ebp)
	addl	%ebx, -112(%ebp)
	movl	-32(%ebp), %eax
	adcl	%esi, -108(%ebp)
	movl	-28(%ebp), %edx
	movl	%edx, -60(%ebp)
	movl	%eax, -64(%ebp)
	movl	-60(%ebp), %ecx
	movl	-108(%ebp), %eax
	xorl	%eax, %ecx
	movl	-64(%ebp), %edx
	movl	-112(%ebp), %eax
	xorl	%edx, %eax
	orl	%eax, %ecx
	je	.L282
	.loc 4 72 0
	movl	-48(%ebp), %eax
	movl	-44(%ebp), %edx
	testl	%edx, %edx
	je	.L283
	.loc 4 79 0
	movl	-32(%ebp), %eax
	movl	-28(%ebp), %edx
	pushl	%esi
	pushl	%ebx
	pushl	%edx
	pushl	%eax
	call	__umoddi3
	movl	-68(%ebp), %ebx
	addl	$16, %esp
	movl	4(%ebx,%eax,8), %edx
	testl	%edx, %edx
	je	.L280
	.loc 4 80 0
	movl	-32(%ebp), %esi
	movl	-28(%ebp), %edi
	addl	$1, %esi
	movl	-32(%ebp), %eax
	adcl	$0, %edi
	movl	%esi, %ebx
	movl	-88(%ebp), %esi
	movl	-28(%ebp), %edx
	movl	%edi, %ecx
	lock cmpxchg8b	(%esi)
	movl	-140(%ebp), %edi
	movl	-140(%ebp), %eax
	movl	24(%edi), %edi
	movl	20(%eax), %eax
	movl	%edi, -68(%ebp)
	movl	%eax, -80(%ebp)
	jmp	.L280
	.p2align 4,,7
	.p2align 3
.L282:
	.loc 4 64 0
	movl	-40(%ebp), %eax
	movl	-36(%ebp), %edx
	pushl	%esi
	pushl	%ebx
	pushl	%edx
	pushl	%eax
	call	__umoddi3
	movl	-68(%ebp), %edx
	addl	$16, %esp
	movl	4(%edx,%eax,8), %ecx
	testl	%ecx, %ecx
	je	.L264
	.loc 4 65 0
	movl	4(%edi), %ecx
	movl	8(%edi), %ebx
	movl	%ebx, %esi
	movl	-40(%ebp), %eax
	movl	-36(%ebp), %edx
	xorl	%ecx, %eax
	xorl	%edx, %esi
	orl	%eax, %esi
	je	.L265
.L264:
	.loc 4 68 0
	movl	-40(%ebp), %esi
	movl	-36(%ebp), %edi
	addl	$1, %esi
	movl	-40(%ebp), %eax
	adcl	$0, %edi
	movl	-36(%ebp), %edx
	movl	%edi, %ecx
	movl	-84(%ebp), %edi
	movl	%esi, %ebx
	lock cmpxchg8b	(%edi)
.L281:
	.loc 4 73 0
	movl	-140(%ebp), %eax
	movl	-140(%ebp), %edx
	movl	24(%eax), %eax
	movl	20(%edx), %edx
	movl	%eax, -68(%ebp)
	movl	%edx, -80(%ebp)
	jmp	.L280
	.p2align 4,,7
	.p2align 3
.L283:
	movl	-48(%ebp), %eax
	movl	-44(%ebp), %edx
	movl	%edx, -76(%ebp)
	movl	-48(%ebp), %edx
	movl	-44(%ebp), %ecx
	movl	%eax, -80(%ebp)
	movl	%edx, -64(%ebp)
	movl	%ecx, -60(%ebp)
	movl	-32(%ebp), %eax
	movl	-28(%ebp), %edx
	pushl	%esi
	pushl	%ebx
	pushl	%edx
	pushl	%eax
	call	__umoddi3
	movl	-80(%ebp), %edx
	incl	%edx
	addl	$16, %esp
	xorl	%ecx, %ecx
	addl	-96(%ebp), %edx
	movl	%eax, %esi
	movl	%edx, -112(%ebp)
	adcl	-92(%ebp), %ecx
	movl	-68(%ebp), %edi
	movl	%eax, -124(%ebp)
	movl	-60(%ebp), %edx
	movl	-64(%ebp), %eax
	movl	-112(%ebp), %ebx
	movl	%ecx, -80(%ebp)
	lock cmpxchg8b	(%edi,%esi,8)
	jne	.L281
	.loc 4 74 0
	movl	-32(%ebp), %ecx
	movl	-140(%ebp), %edi
.LVL242:
	movl	%ecx, -64(%ebp)
	addl	$12, %edi
.LVL243:
	addl	$1, -64(%ebp)
	movl	-28(%ebp), %ebx
	movl	-32(%ebp), %eax
	movl	%ebx, -60(%ebp)
	movl	-28(%ebp), %edx
	adcl	$0, -60(%ebp)
	movl	-64(%ebp), %ebx
	movl	-60(%ebp), %ecx
	lock cmpxchg8b	(%edi)
.LBE1466:
	.loc 4 83 0
	leal	-12(%ebp), %esp
.LBB1467:
	.loc 4 74 0
	movb	$1, %al
.LBE1467:
	.loc 4 83 0
	popl	%ebx
	popl	%esi
	popl	%edi
	popl	%ebp
	ret
.LVL244:
	.p2align 4,,7
	.p2align 3
.L265:
	leal	-12(%ebp), %esp
.LBB1468:
	.loc 4 80 0
	xorl	%eax, %eax
.LBE1468:
	.loc 4 83 0
	popl	%ebx
	popl	%esi
	popl	%edi
	popl	%ebp
	ret
	.cfi_endproc
.LFE1428:
	.size	_ZN18LockfreeMultiQueueIjE4pushEj, .-_ZN18LockfreeMultiQueueIjE4pushEj
	.section	.rodata.str1.1
.LC23:
	.string	"failed to create new thread"
	.section	.rodata.str1.4
	.align 4
.LC24:
	.string	"/home/simon/da/lockfree/src/common/Thread.h"
	.section	.rodata.str1.1
.LC25:
	.string	"joining failed"
	.text
	.align 2
	.p2align 4,,15
.globl _ZN9QueueTest7runTestEj
	.type	_ZN9QueueTest7runTestEj, @function
_ZN9QueueTest7runTestEj:
.LFB1209:
	.loc 1 75 0
	.cfi_startproc
	.cfi_personality 0x0,__gxx_personality_v0
.LVL245:
	pushl	%ebp
.LCFI94:
	.cfi_def_cfa_offset 8
	movl	%esp, %ebp
	.cfi_offset 5, -8
.LCFI95:
	.cfi_def_cfa_register 5
	pushl	%edi
	pushl	%esi
	pushl	%ebx
	subl	$52, %esp
	.loc 1 75 0
	movl	12(%ebp), %ebx
	.cfi_offset 3, -20
	.cfi_offset 6, -16
	.cfi_offset 7, -12
.LBB1484:
	.loc 1 80 0
	movl	16(%ebp), %eax
	movl	%eax, 8(%ebx)
	.loc 1 83 0
	leal	-36(%ebp), %eax
	pushl	%eax
	pushl	$0
	.cfi_escape 0x2e,0x10
	call	clock_gettime
.LBB1495:
	.loc 1 86 0
	movl	(%ebx), %eax
	addl	$16, %esp
	testl	%eax, %eax
	je	.L285
.LVL246:
	xorl	%esi, %esi
.LVL247:
	.p2align 4,,7
	.p2align 3
.L287:
	.loc 1 87 0
	movl	12(%ebx,%esi,4), %eax
.LBB1496:
.LBB1497:
	.file 14 "/home/simon/da/lockfree/src/common/Thread.h"
	.loc 14 29 0
	movb	$1, 8(%eax)
	.loc 14 33 0
	pushl	%ebx
	movl	12(%eax), %edi
	addl	$4, %eax
	pushl	%edi
	pushl	$0
	pushl	%eax
	call	pthread_create
	addl	$16, %esp
	testl	%eax, %eax
	je	.L286
	.loc 14 34 0
	subl	$12, %esp
	pushl	$.LC23
	pushl	$_ZZN6Thread3runEPvE8__func__
	pushl	$_ZZN6Thread3runEPvE19__PRETTY_FUNCTION__
	pushl	$.LC24
	pushl	$34
	.cfi_escape 0x2e,0x20
	call	vermont_exception
	addl	$32, %esp
.L286:
.LBE1497:
.LBE1496:
	.loc 1 86 0
	incl	%esi
	movl	(%ebx), %eax
	cmpl	%esi, %eax
	ja	.L287
.L285:
.LBE1495:
	.loc 1 89 0
	movl	92(%ebx), %eax
.LBB1493:
.LBB1494:
	.loc 14 29 0
	movb	$1, 8(%eax)
	.loc 14 33 0
	pushl	%ebx
	movl	12(%eax), %ecx
	addl	$4, %eax
	pushl	%ecx
	pushl	$0
	pushl	%eax
	.cfi_escape 0x2e,0x10
	call	pthread_create
	addl	$16, %esp
	testl	%eax, %eax
	je	.L288
	.loc 14 34 0
	subl	$12, %esp
	pushl	$.LC23
	pushl	$_ZZN6Thread3runEPvE8__func__
	pushl	$_ZZN6Thread3runEPvE19__PRETTY_FUNCTION__
	pushl	$.LC24
	pushl	$34
	.cfi_escape 0x2e,0x20
	call	vermont_exception
	addl	$32, %esp
.L288:
.LBE1494:
.LBE1493:
.LBB1488:
	.loc 1 92 0
	movl	(%ebx), %eax
	testl	%eax, %eax
	je	.L289
	xorl	%esi, %esi
.LVL248:
	jmp	.L293
.LVL249:
	.p2align 4,,7
	.p2align 3
.L291:
.LBB1489:
.LBB1490:
	.loc 14 45 0
	pushl	%ecx
	pushl	%ecx
	pushl	$.LC25
	pushl	$2
	pushl	$_ZZN6Thread4joinEvE8__func__
	pushl	$_ZZN6Thread4joinEvE19__PRETTY_FUNCTION__
	pushl	$.LC24
	pushl	$45
	call	msg2
	addl	$32, %esp
.L292:
	.loc 14 47 0
	movb	$0, 8(%edi)
.L290:
.LBE1490:
.LBE1489:
	.loc 1 92 0
	incl	%esi
	movl	(%ebx), %eax
	cmpl	%esi, %eax
	jbe	.L289
.L293:
	.loc 1 93 0
	movl	12(%ebx,%esi,4), %edi
.LBB1492:
.LBB1491:
	.loc 14 41 0
	cmpb	$0, 8(%edi)
	je	.L290
	.loc 14 44 0
	movl	4(%edi), %eax
	.loc 14 43 0
	movl	$0, -28(%ebp)
.LVL250:
	.loc 14 44 0
	testl	%eax, %eax
	je	.L291
	pushl	%edx
	pushl	%edx
	leal	-28(%ebp), %edx
	pushl	%edx
	pushl	%eax
	.cfi_escape 0x2e,0x10
	call	pthread_join
	addl	$16, %esp
	testl	%eax, %eax
	je	.L292
	jmp	.L291
.LVL251:
	.p2align 4,,7
	.p2align 3
.L289:
.LBE1491:
.LBE1492:
.LBE1488:
	.loc 1 95 0
	movl	92(%ebx), %esi
.LVL252:
.LBB1485:
.LBB1486:
	.loc 14 41 0
	cmpb	$0, 8(%esi)
	je	.L294
	.loc 14 44 0
	movl	4(%esi), %eax
	.loc 14 43 0
	movl	$0, -28(%ebp)
.LVL253:
	.loc 14 44 0
	testl	%eax, %eax
	jne	.L302
.L295:
	.loc 14 45 0
	pushl	%eax
	pushl	%eax
	pushl	$.LC25
	pushl	$2
	pushl	$_ZZN6Thread4joinEvE8__func__
	pushl	$_ZZN6Thread4joinEvE19__PRETTY_FUNCTION__
	pushl	$.LC24
	pushl	$45
	.cfi_escape 0x2e,0x20
	call	msg2
	addl	$32, %esp
.L296:
	.loc 14 47 0
	movb	$0, 8(%esi)
.L294:
.LBE1486:
.LBE1485:
	.loc 1 98 0
	leal	-44(%ebp), %eax
	pushl	%edi
	pushl	%edi
	pushl	%eax
	pushl	$0
	.cfi_escape 0x2e,0x10
	call	clock_gettime
	.loc 1 99 0
	movl	-40(%ebp), %edx
	movl	-32(%ebp), %eax
	movl	%edx, %ecx
	addl	$16, %esp
	subl	%eax, %ecx
	js	.L303
	.loc 1 103 0
	movl	-36(%ebp), %edx
	movl	-44(%ebp), %eax
	subl	%edx, %eax
	movl	8(%ebp), %edx
	movl	%eax, (%edx)
	.loc 1 104 0
	movl	%ecx, 4(%edx)
.L298:
	.loc 1 108 0
	movl	96(%ebx), %eax
	subl	$12, %esp
	movl	(%eax), %edx
	pushl	%eax
	call	*24(%edx)
.LBE1484:
	.loc 1 111 0
	movl	8(%ebp), %eax
	leal	-12(%ebp), %esp
	popl	%ebx
.LVL254:
	popl	%esi
	popl	%edi
	popl	%ebp
	ret	$4
.LVL255:
.L302:
.LBB1499:
.LBB1498:
.LBB1487:
	.loc 14 44 0
	pushl	%edx
	pushl	%edx
	leal	-28(%ebp), %edx
	pushl	%edx
	pushl	%eax
	call	pthread_join
	addl	$16, %esp
	testl	%eax, %eax
	je	.L296
	jmp	.L295
.L303:
.LBE1487:
.LBE1498:
	.loc 1 100 0
	movl	-44(%ebp), %ecx
	movl	-36(%ebp), %esi
	decl	%ecx
	.loc 1 101 0
	addl	$1000000000, %edx
	.loc 1 100 0
	subl	%esi, %ecx
	movl	8(%ebp), %esi
	.loc 1 101 0
	subl	%eax, %edx
	.loc 1 100 0
	movl	%ecx, (%esi)
	.loc 1 101 0
	movl	%edx, 4(%esi)
	jmp	.L298
.LBE1499:
	.cfi_endproc
.LFE1209:
	.size	_ZN9QueueTest7runTestEj, .-_ZN9QueueTest7runTestEj
	.section	.text._ZNSt11_Deque_baseIjSaIjEE17_M_initialize_mapEj,"axG",@progbits,_ZNSt11_Deque_baseIjSaIjEE17_M_initialize_mapEj,comdat
	.align 2
	.p2align 4,,15
	.weak	_ZNSt11_Deque_baseIjSaIjEE17_M_initialize_mapEj
	.type	_ZNSt11_Deque_baseIjSaIjEE17_M_initialize_mapEj, @function
_ZNSt11_Deque_baseIjSaIjEE17_M_initialize_mapEj:
.LFB1329:
	.loc 8 492 0
	.cfi_startproc
	.cfi_personality 0x0,__gxx_personality_v0
	.cfi_lsda 0x0,.LLSDA1329
.LVL256:
	pushl	%ebp
.LCFI96:
	.cfi_def_cfa_offset 8
	movl	%esp, %ebp
	.cfi_offset 5, -8
.LCFI97:
	.cfi_def_cfa_register 5
	pushl	%edi
	pushl	%esi
	pushl	%ebx
	subl	$28, %esp
.LBB1524:
	.loc 8 496 0
	movl	12(%ebp), %eax
.LBE1524:
	.loc 8 492 0
	movl	8(%ebp), %edi
	.cfi_offset 3, -20
	.cfi_offset 6, -16
	.cfi_offset 7, -12
.LBB1560:
	.loc 8 496 0
	shrl	$7, %eax
	leal	1(%eax), %ebx
.LVL257:
	addl	$3, %eax
	cmpl	$8, %eax
	jae	.L305
.LVL258:
	movl	$8, %eax
.L305:
.LBB1549:
.LBB1551:
.LBB1553:
	.loc 9 89 0
	subl	$12, %esp
.LBE1553:
.LBE1551:
.LBE1549:
	.loc 8 498 0
	movl	%eax, 4(%edi)
.LBB1548:
.LBB1550:
.LBB1552:
	.loc 9 89 0
	sall	$2, %eax
	pushl	%eax
.LEHB8:
	.cfi_escape 0x2e,0x10
	call	_Znwj
.LEHE8:
.LBE1552:
.LBE1550:
.LBE1548:
	.loc 8 508 0
	movl	4(%edi), %edx
.LBB1547:
.LBB1555:
.LBB1554:
	.loc 9 89 0
	addl	$16, %esp
.LBE1554:
.LBE1555:
.LBE1547:
	.loc 8 508 0
	subl	%ebx, %edx
	.loc 8 500 0
	movl	%eax, (%edi)
	.loc 8 508 0
	shrl	%edx
	leal	(%eax,%edx,4), %edx
	movl	%edx, -28(%ebp)
	.loc 8 509 0
	leal	(%edx,%ebx,4), %esi
.LVL259:
.LBB1533:
.LBB1534:
	.loc 8 537 0
	movl	%edx, %ebx
.LVL260:
	cmpl	%esi, %edx
	jae	.L307
	.p2align 4,,7
	.p2align 3
.L324:
.LBB1536:
.LBB1537:
.LBB1538:
	.loc 9 89 0
	subl	$12, %esp
	pushl	$512
.LEHB9:
	call	_Znwj
.LEHE9:
.LBE1538:
.LBE1537:
.LBE1536:
	.loc 8 538 0
	movl	%eax, (%ebx)
	.loc 8 537 0
	addl	$4, %ebx
.LBB1535:
.LBB1540:
.LBB1539:
	.loc 9 89 0
	addl	$16, %esp
.LBE1539:
.LBE1540:
.LBE1535:
	.loc 8 537 0
	cmpl	%ebx, %esi
	ja	.L324
.L307:
.LBE1534:
.LBE1533:
.LBB1531:
.LBB1532:
	.loc 8 224 0
	movl	-28(%ebp), %eax
	movl	%eax, 20(%edi)
	.loc 8 225 0
	movl	(%eax), %edx
	movl	%edx, 12(%edi)
	.loc 8 226 0
	leal	512(%edx), %eax
	movl	%eax, 16(%edi)
.LBE1532:
.LBE1531:
	.loc 8 522 0
	leal	-4(%esi), %eax
.LBB1527:
.LBB1529:
	.loc 8 224 0
	movl	%eax, 36(%edi)
	.loc 8 225 0
	movl	-4(%esi), %eax
.LBE1529:
.LBE1527:
	.loc 8 523 0
	movl	%edx, 8(%edi)
	.loc 8 524 0
	movl	12(%ebp), %edx
	andl	$127, %edx
.LBB1526:
.LBB1528:
	.loc 8 225 0
	movl	%eax, 28(%edi)
	.loc 8 226 0
	leal	512(%eax), %ecx
.LBE1528:
.LBE1526:
	.loc 8 524 0
	leal	(%eax,%edx,4), %eax
.LBB1525:
.LBB1530:
	.loc 8 226 0
	movl	%ecx, 32(%edi)
.LBE1530:
.LBE1525:
	.loc 8 524 0
	movl	%eax, 24(%edi)
.LBE1560:
	.loc 8 527 0
	leal	-12(%ebp), %esp
	popl	%ebx
.LVL261:
	popl	%esi
.LVL262:
	popl	%edi
.LVL263:
	popl	%ebp
	ret
.LVL264:
.L319:
.L308:
.LBB1561:
.LBB1556:
.LBB1546:
	.loc 8 537 0
	subl	$12, %esp
	pushl	%eax
.LEHB10:
	call	_Unwind_Resume
.LEHE10:
.LVL265:
.L321:
.L310:
	.loc 8 540 0
	subl	$12, %esp
	pushl	%eax
	call	__cxa_begin_catch
	addl	$16, %esp
.L311:
.LBB1541:
.LBB1542:
	.loc 8 552 0
	cmpl	%ebx, -28(%ebp)
	jae	.L326
.LBB1543:
.LBB1544:
.LBB1545:
	.loc 9 95 0
	movl	-28(%ebp), %eax
	subl	$12, %esp
	pushl	(%eax)
	call	_ZdlPv
.LBE1545:
.LBE1544:
.LBE1543:
	.loc 8 552 0
	addl	$16, %esp
	addl	$4, -28(%ebp)
	jmp	.L311
.L326:
.LEHB11:
.LBE1542:
.LBE1541:
	.loc 8 543 0
	.cfi_escape 0x2e,0x0
	call	__cxa_rethrow
.LEHE11:
.L320:
.L313:
.L323:
.L314:
	.loc 8 540 0
	movl	%eax, -32(%ebp)
	call	__cxa_end_catch
.LBE1546:
.LBE1556:
	.loc 8 513 0
	subl	$12, %esp
	movl	-32(%ebp), %eax
	pushl	%eax
	.cfi_escape 0x2e,0x10
	call	__cxa_begin_catch
.LBB1557:
.LBB1558:
.LBB1559:
	.loc 9 95 0
	popl	%eax
	pushl	(%edi)
	call	_ZdlPv
.LBE1559:
.LBE1558:
.LBE1557:
	.loc 8 516 0
	movl	$0, (%edi)
	.loc 8 517 0
	movl	$0, 4(%edi)
	.loc 8 518 0
	addl	$16, %esp
.LEHB12:
	.cfi_escape 0x2e,0x0
	call	__cxa_rethrow
.LEHE12:
.L322:
.L315:
	.loc 8 513 0
	movl	%eax, -32(%ebp)
	call	__cxa_end_catch
	subl	$12, %esp
	movl	-32(%ebp), %eax
	pushl	%eax
.LEHB13:
	.cfi_escape 0x2e,0x10
	call	_Unwind_Resume
.LEHE13:
.LBE1561:
	.cfi_endproc
.LFE1329:
	.size	_ZNSt11_Deque_baseIjSaIjEE17_M_initialize_mapEj, .-_ZNSt11_Deque_baseIjSaIjEE17_M_initialize_mapEj
	.section	.gcc_except_table
	.align 4
.LLSDA1329:
	.byte	0xff
	.byte	0x0
	.uleb128 .LLSDATT1329-.LLSDATTD1329
.LLSDATTD1329:
	.byte	0x1
	.uleb128 .LLSDACSE1329-.LLSDACSB1329
.LLSDACSB1329:
	.uleb128 .LEHB8-.LFB1329
	.uleb128 .LEHE8-.LEHB8
	.uleb128 .L319-.LFB1329
	.uleb128 0x0
	.uleb128 .LEHB9-.LFB1329
	.uleb128 .LEHE9-.LEHB9
	.uleb128 .L321-.LFB1329
	.uleb128 0x1
	.uleb128 .LEHB10-.LFB1329
	.uleb128 .LEHE10-.LEHB10
	.uleb128 0x0
	.uleb128 0x0
	.uleb128 .LEHB11-.LFB1329
	.uleb128 .LEHE11-.LEHB11
	.uleb128 .L320-.LFB1329
	.uleb128 0x3
	.uleb128 .LEHB12-.LFB1329
	.uleb128 .LEHE12-.LEHB12
	.uleb128 .L322-.LFB1329
	.uleb128 0x0
	.uleb128 .LEHB13-.LFB1329
	.uleb128 .LEHE13-.LEHB13
	.uleb128 0x0
	.uleb128 0x0
.LLSDACSE1329:
	.byte	0x1
	.byte	0x0
	.byte	0x0
	.byte	0x7d
	.align 4
	.long	0
.LLSDATT1329:
	.section	.text._ZNSt11_Deque_baseIjSaIjEE17_M_initialize_mapEj,"axG",@progbits,_ZNSt11_Deque_baseIjSaIjEE17_M_initialize_mapEj,comdat
	.section	.text._ZN8STLQueueIjEC1Ev,"axG",@progbits,_ZN8STLQueueIjEC1Ev,comdat
	.align 2
	.p2align 4,,15
	.weak	_ZN8STLQueueIjEC1Ev
	.type	_ZN8STLQueueIjEC1Ev, @function
_ZN8STLQueueIjEC1Ev:
.LFB1262:
	.loc 11 21 0
	.cfi_startproc
	.cfi_personality 0x0,__gxx_personality_v0
	.cfi_lsda 0x0,.LLSDA1262
.LVL266:
	pushl	%ebp
.LCFI98:
	.cfi_def_cfa_offset 8
	movl	%esp, %ebp
	.cfi_offset 5, -8
.LCFI99:
	.cfi_def_cfa_register 5
	pushl	%edi
	pushl	%esi
	pushl	%ebx
	subl	$132, %esp
.LBB1637:
.LBB1802:
.LBB1804:
.LBB1806:
	.loc 8 375 0
	leal	-92(%ebp), %esi
	.cfi_offset 3, -20
	.cfi_offset 6, -16
	.cfi_offset 7, -12
.LBE1806:
.LBE1804:
.LBE1802:
.LBE1637:
	.loc 11 21 0
	movl	8(%ebp), %ebx
	movl	%gs:20, %eax
	movl	%eax, -28(%ebp)
	xorl	%eax, %eax
.LBB1827:
.LBB1801:
.LBB1821:
.LBB1819:
.LBB1809:
.LBB1811:
	.loc 8 420 0
	movl	$0, -92(%ebp)
	movl	$0, -88(%ebp)
.LBE1811:
.LBE1809:
.LBE1819:
.LBE1821:
.LBE1801:
	.loc 11 21 0
	movl	$_ZTV8STLQueueIjE+8, (%ebx)
.LBB1800:
.LBB1803:
.LBB1805:
.LBB1808:
.LBB1810:
.LBB1812:
.LBB1813:
	.loc 8 121 0
	movl	$0, -84(%ebp)
.LBE1813:
.LBE1812:
.LBE1810:
.LBE1808:
	.loc 8 375 0
	pushl	$0
.LBB1807:
.LBB1818:
.LBB1815:
.LBB1814:
	.loc 8 121 0
	movl	$0, -80(%ebp)
	movl	$0, -76(%ebp)
	movl	$0, -72(%ebp)
.LBE1814:
.LBE1815:
.LBB1816:
.LBB1817:
	movl	$0, -68(%ebp)
	movl	$0, -64(%ebp)
	movl	$0, -60(%ebp)
	movl	$0, -56(%ebp)
.LBE1817:
.LBE1816:
.LBE1818:
.LBE1807:
	.loc 8 375 0
	pushl	%esi
.LEHB14:
	.cfi_escape 0x2e,0x10
	call	_ZNSt11_Deque_baseIjSaIjEE17_M_initialize_mapEj
.LEHE14:
.LVL267:
	popl	%edx
.LBE1805:
.LBE1803:
.LBE1800:
.LBB1658:
.LBB1659:
.LBB1660:
.LBB1663:
	.loc 8 1006 0
	movl	-84(%ebp), %eax
	movl	-76(%ebp), %edx
	movl	-64(%ebp), %edi
	subl	%eax, %edx
	movl	-68(%ebp), %eax
	subl	%edi, %eax
.LBE1663:
.LBE1660:
.LBE1659:
.LBE1658:
.LBB1657:
.LBB1822:
.LBB1820:
	.loc 8 375 0
	popl	%ecx
.LBE1820:
.LBE1822:
.LBE1657:
.LBB1656:
.LBB1799:
.LBB1667:
.LBB1664:
	.loc 8 1006 0
	sarl	$2, %eax
	movl	-72(%ebp), %ecx
	sarl	$2, %edx
.LBE1664:
.LBE1667:
.LBB1668:
.LBB1671:
.LBB1674:
.LBB1677:
	.loc 8 425 0
	movl	$0, 4(%ebx)
.LBE1677:
.LBE1674:
.LBE1671:
.LBE1668:
.LBB1691:
.LBB1662:
	.loc 8 1006 0
	addl	%eax, %edx
	movl	-56(%ebp), %eax
	subl	%ecx, %eax
.LBE1662:
.LBE1691:
.LBB1692:
.LBB1688:
.LBB1686:
.LBB1676:
	.loc 8 425 0
	movl	$0, 8(%ebx)
.LBE1676:
.LBE1686:
.LBE1688:
.LBE1692:
.LBB1693:
.LBB1665:
	.loc 8 1006 0
	sarl	$2, %eax
.LBE1665:
.LBE1693:
.LBB1694:
.LBB1670:
.LBB1673:
.LBB1684:
.LBB1679:
.LBB1680:
	.loc 8 121 0
	movl	$0, 12(%ebx)
.LBE1680:
.LBE1679:
.LBE1684:
.LBE1673:
.LBE1670:
.LBE1694:
.LBB1695:
.LBB1661:
	.loc 8 1006 0
	sall	$7, %eax
.LBE1661:
.LBE1695:
.LBB1696:
.LBB1689:
.LBB1687:
.LBB1675:
.LBB1678:
.LBB1681:
	.loc 8 121 0
	movl	$0, 16(%ebx)
	movl	$0, 20(%ebx)
	movl	$0, 24(%ebx)
.LBE1681:
.LBE1678:
.LBE1675:
.LBE1687:
.LBE1689:
.LBE1696:
.LBB1697:
.LBB1666:
	.loc 8 1006 0
	leal	-128(%eax,%edx), %eax
.LBE1666:
.LBE1697:
.LBB1698:
.LBB1669:
.LBB1672:
.LBB1685:
.LBB1682:
.LBB1683:
	.loc 8 121 0
	movl	$0, 28(%ebx)
	movl	$0, 32(%ebx)
	movl	$0, 36(%ebx)
	movl	$0, 40(%ebx)
.LBE1683:
.LBE1682:
.LBE1685:
.LBE1672:
	.loc 8 379 0
	pushl	%eax
	leal	4(%ebx), %eax
	pushl	%eax
.LEHB15:
	call	_ZNSt11_Deque_baseIjSaIjEE17_M_initialize_mapEj
.LEHE15:
.LBE1669:
.LBE1698:
.LBB1699:
.LBB1701:
	.loc 8 125 0
	movl	20(%ebx), %ecx
	movl	24(%ebx), %eax
	movl	%ecx, -120(%ebp)
.LBE1701:
.LBE1699:
.LBB1703:
.LBB1704:
.LBB1705:
	movl	-72(%ebp), %ecx
	movl	%ecx, -116(%ebp)
	movl	-76(%ebp), %edi
.LVL268:
	movl	%ecx, -108(%ebp)
.LBE1705:
.LBE1704:
.LBE1703:
.LBB1708:
.LBB1711:
.LBB1714:
.LBB1717:
.LBB1720:
.LBB1723:
.LBB1726:
.LBB1729:
.LBB1732:
.LBB1735:
.LBB1738:
.LBB1741:
.LBB1744:
	.loc 8 325 0
	movl	-68(%ebp), %ecx
	subl	-64(%ebp), %ecx
.LBE1744:
.LBE1741:
.LBE1738:
.LBE1735:
.LBE1732:
.LBE1729:
.LBE1726:
.LBE1723:
.LBE1720:
.LBE1717:
.LBE1714:
.LBE1711:
.LBE1708:
.LBB1791:
.LBB1700:
	.loc 8 125 0
	movl	%eax, -112(%ebp)
.LBE1700:
.LBE1791:
.LBB1792:
.LBB1710:
.LBB1713:
.LBB1716:
.LBB1719:
.LBB1722:
.LBB1725:
.LBB1728:
.LBB1731:
.LBB1734:
.LBB1737:
.LBB1740:
.LBB1743:
	.loc 8 325 0
	movl	%edi, %esi
.LBE1743:
.LBE1740:
.LBE1737:
.LBE1734:
.LBE1731:
.LBE1728:
.LBE1725:
.LBE1722:
.LBE1719:
.LBE1716:
.LBE1713:
.LBE1710:
.LBE1792:
.LBB1793:
.LBB1707:
.LBB1706:
	.loc 8 125 0
	movl	-84(%ebp), %eax
.LVL269:
.LBE1706:
.LBE1707:
.LBE1793:
.LBB1794:
.LBB1789:
.LBB1787:
.LBB1785:
.LBB1783:
.LBB1781:
.LBB1779:
.LBB1777:
.LBB1775:
.LBB1773:
.LBB1771:
.LBB1747:
.LBB1745:
	.loc 8 325 0
	subl	%eax, %esi
.LBE1745:
.LBE1747:
.LBE1771:
.LBE1773:
.LBE1775:
.LBE1777:
.LBE1779:
.LBE1781:
.LBE1783:
.LBE1785:
.LBE1787:
.LBE1789:
.LBE1794:
.LBB1795:
.LBB1690:
	.loc 8 379 0
	addl	$16, %esp
.LBE1690:
.LBE1795:
.LBB1796:
.LBB1709:
.LBB1712:
.LBB1715:
.LBB1718:
.LBB1721:
.LBB1724:
.LBB1727:
.LBB1730:
.LBB1733:
.LBB1736:
.LBB1739:
.LBB1742:
	.loc 8 325 0
	sarl	$2, %ecx
.LBE1742:
.LBE1739:
.LBE1736:
.LBE1733:
.LBE1730:
.LBE1727:
.LBE1724:
.LBE1721:
.LBE1718:
.LBE1715:
.LBE1712:
.LBE1709:
.LBE1796:
.LBB1797:
.LBB1702:
	.loc 8 125 0
	movl	12(%ebx), %edx
.LBE1702:
.LBE1797:
.LBB1798:
.LBB1790:
.LBB1788:
.LBB1786:
.LBB1784:
.LBB1782:
.LBB1780:
.LBB1778:
.LBB1776:
.LBB1774:
.LBB1772:
.LBB1748:
.LBB1746:
	.loc 8 325 0
	sarl	$2, %esi
	addl	%ecx, %esi
	movl	-56(%ebp), %ecx
	movl	%ecx, -124(%ebp)
	subl	-116(%ebp), %ecx
	sarl	$2, %ecx
	sall	$7, %ecx
	leal	-128(%ecx,%esi), %ecx
.LVL270:
.LBE1746:
.LBE1748:
	.file 15 "/usr/include/c++/4.4/bits/stl_algobase.h"
	.loc 15 341 0
	testl	%ecx, %ecx
	jle	.L332
	movl	-120(%ebp), %esi
	movl	%ebx, -120(%ebp)
	jmp	.L348
.LVL271:
	.p2align 4,,7
	.p2align 3
.L333:
.LBB1749:
.LBB1752:
	.loc 8 138 0
	addl	$4, %edx
	.loc 8 139 0
	cmpl	%esi, %edx
	je	.L354
.L334:
.LBE1752:
.LBE1749:
	.loc 15 341 0
	decl	%ecx
.LVL272:
	je	.L355
.LVL273:
.L348:
	.loc 15 343 0
	movl	(%eax), %ebx
.LBB1757:
.LBB1759:
	.loc 8 138 0
	addl	$4, %eax
.LBE1759:
.LBE1757:
	.loc 15 343 0
	movl	%ebx, (%edx)
.LBB1764:
.LBB1762:
	.loc 8 139 0
	cmpl	%edi, %eax
	jne	.L333
	.loc 8 141 0
	movl	-108(%ebp), %edi
.LVL274:
.LBE1762:
.LBE1764:
.LBB1765:
.LBB1751:
	.loc 8 138 0
	addl	$4, %edx
.LBE1751:
.LBE1765:
.LBB1766:
.LBB1758:
	.loc 8 141 0
	addl	$4, %edi
.LBE1758:
.LBE1766:
.LBB1767:
.LBB1755:
	.loc 8 139 0
	cmpl	%esi, %edx
.LBE1755:
.LBE1767:
.LBB1768:
.LBB1763:
	.loc 8 141 0
	movl	%edi, -108(%ebp)
.LBB1760:
.LBB1761:
	.loc 8 225 0
	movl	-108(%ebp), %ebx
	movl	(%ebx), %eax
	.loc 8 226 0
	leal	512(%eax), %edi
.LVL275:
.LBE1761:
.LBE1760:
.LBE1763:
.LBE1768:
.LBB1769:
.LBB1750:
	.loc 8 139 0
	jne	.L334
	.p2align 4,,7
	.p2align 3
.L354:
	.loc 8 141 0
	movl	-112(%ebp), %ebx
	addl	$4, %ebx
.LBE1750:
.LBE1769:
	.loc 15 341 0
	decl	%ecx
.LVL276:
.LBB1770:
.LBB1756:
	.loc 8 141 0
	movl	%ebx, -112(%ebp)
.LBB1753:
.LBB1754:
	.loc 8 225 0
	movl	-112(%ebp), %ebx
	movl	(%ebx), %edx
	.loc 8 226 0
	leal	512(%edx), %esi
.LBE1754:
.LBE1753:
.LBE1756:
.LBE1770:
	.loc 15 341 0
	jne	.L348
	.p2align 4,,7
	.p2align 3
.L355:
	movl	-120(%ebp), %ebx
.LVL277:
.L332:
.LBE1772:
.LBE1774:
.LBE1776:
.LBE1778:
.LBE1780:
.LBE1782:
.LBE1784:
.LBE1786:
.LBE1788:
.LBE1790:
.LBE1798:
.LBE1799:
.LBE1656:
.LBB1642:
.LBB1643:
.LBB1644:
	.loc 8 474 0
	movl	-92(%ebp), %eax
.LVL278:
	testl	%eax, %eax
	je	.L337
	.loc 8 476 0
	movl	-124(%ebp), %edi
.LVL279:
	movl	-116(%ebp), %esi
.LVL280:
	addl	$4, %edi
.LBB1645:
.LBB1646:
	.loc 8 552 0
	cmpl	%esi, %edi
	jbe	.L338
	.p2align 4,,7
	.p2align 3
.L347:
.LBB1647:
.LBB1648:
.LBB1649:
	.loc 9 95 0
	subl	$12, %esp
	movl	(%esi), %ecx
.LVL281:
.LBE1649:
.LBE1648:
.LBE1647:
	.loc 8 552 0
	addl	$4, %esi
.LVL282:
.LBB1652:
.LBB1651:
.LBB1650:
	.loc 9 95 0
	pushl	%ecx
	call	_ZdlPv
.LBE1650:
.LBE1651:
.LBE1652:
	.loc 8 552 0
	addl	$16, %esp
	cmpl	%esi, %edi
	ja	.L347
	movl	-92(%ebp), %eax
.LVL283:
.L338:
.LBE1646:
.LBE1645:
.LBB1653:
.LBB1654:
.LBB1655:
	.loc 9 95 0
	subl	$12, %esp
	pushl	%eax
	call	_ZdlPv
.LVL284:
	addl	$16, %esp
.LVL285:
.L337:
.LBE1655:
.LBE1654:
.LBE1653:
.LBE1644:
.LBE1643:
.LBE1642:
.LBB1638:
.LBB1639:
.LBB1640:
	.loc 12 30 0
	xorl	%eax, %eax
	leal	-52(%ebp), %edi
.LVL286:
	movl	$6, %ecx
.LVL287:
.LBE1640:
	.loc 12 29 0
	movl	$_ZTV5Mutex+8, 44(%ebx)
.LBB1641:
	.loc 12 30 0
	rep stosl
	.loc 12 31 0
	leal	48(%ebx), %edi
	leal	-52(%ebp), %esi
.LVL288:
	movb	$6, %cl
	.loc 12 32 0
	addl	$48, %ebx
.LVL289:
	.loc 12 31 0
	rep movsl
	.loc 12 32 0
	pushl	%edx
	pushl	%edx
	pushl	$0
	pushl	%ebx
	call	pthread_mutex_init
.LBE1641:
.LBE1639:
.LBE1638:
.LBE1827:
	.loc 11 21 0
	movl	-28(%ebp), %eax
	xorl	%gs:20, %eax
	jne	.L356
	leal	-12(%ebp), %esp
	popl	%ebx
	popl	%esi
	popl	%edi
	popl	%ebp
	ret
.L356:
	.cfi_escape 0x2e,0x0
	call	__stack_chk_fail
.LVL290:
.L343:
.L331:
.L345:
.L336:
.LBB1828:
.LBB1823:
.LBB1824:
	.loc 8 790 0
	subl	$12, %esp
	movl	%eax, -128(%ebp)
	pushl	%esi
	.cfi_escape 0x2e,0x10
	call	_ZNSt11_Deque_baseIjSaIjEED2Ev
	addl	$16, %esp
	movl	-128(%ebp), %eax
.L346:
.L340:
.LBE1824:
.LBE1823:
.LBB1825:
.LBB1826:
	.loc 2 23 0
	subl	$12, %esp
	movl	$_ZTV9BaseQueueIjE+8, (%ebx)
	pushl	%eax
.LEHB16:
	call	_Unwind_Resume
.LEHE16:
.L344:
.L329:
	jmp	.L340
.LBE1826:
.LBE1825:
.LBE1828:
	.cfi_endproc
.LFE1262:
	.size	_ZN8STLQueueIjEC1Ev, .-_ZN8STLQueueIjEC1Ev
	.section	.gcc_except_table
.LLSDA1262:
	.byte	0xff
	.byte	0xff
	.byte	0x1
	.uleb128 .LLSDACSE1262-.LLSDACSB1262
.LLSDACSB1262:
	.uleb128 .LEHB14-.LFB1262
	.uleb128 .LEHE14-.LEHB14
	.uleb128 .L344-.LFB1262
	.uleb128 0x0
	.uleb128 .LEHB15-.LFB1262
	.uleb128 .LEHE15-.LEHB15
	.uleb128 .L343-.LFB1262
	.uleb128 0x0
	.uleb128 .LEHB16-.LFB1262
	.uleb128 .LEHE16-.LEHB16
	.uleb128 0x0
	.uleb128 0x0
.LLSDACSE1262:
	.section	.text._ZN8STLQueueIjEC1Ev,"axG",@progbits,_ZN8STLQueueIjEC1Ev,comdat
	.section	.rodata.str1.4
	.align 4
.LC26:
	.string	"Error: Cacheline Size is not big enough"
	.text
	.align 2
	.p2align 4,,15
	.type	T.636, @function
T.636:
.LFB1510:
	.loc 3 276 0
	.cfi_startproc
	.cfi_personality 0x0,__gxx_personality_v0
	.cfi_lsda 0x0,.LLSDA1510
.LVL291:
	pushl	%ebp
.LCFI100:
	.cfi_def_cfa_offset 8
	movl	%esp, %ebp
	.cfi_offset 5, -8
.LCFI101:
	.cfi_def_cfa_register 5
	pushl	%edi
	pushl	%esi
	pushl	%ebx
	subl	$40, %esp
.LBB1829:
	.loc 3 277 0
	movl	$_ZTV19ConcurrentQueueCondIjE+8, (%eax)
.LBB1832:
.LBB1833:
.LBB1834:
	.file 16 "/usr/include/c++/4.4/bits/basic_string.h"
	.loc 16 255 0
	movl	$_ZNSs4_Rep20_S_empty_rep_storageE+12, 44(%eax)
.LBE1834:
.LBE1833:
.LBE1832:
.LBB1831:
	.loc 3 278 0
	movl	%edx, 8(%eax)
.LBE1831:
.LBE1829:
	.loc 3 276 0
	movl	%eax, %esi
	.cfi_offset 3, -20
	.cfi_offset 6, -16
	.cfi_offset 7, -12
.LBB1839:
.LBB1835:
	.loc 3 282 0
	pushl	$72
.LEHB17:
	.cfi_escape 0x2e,0x10
	call	_Znwj
.LEHE17:
.LVL292:
	movl	%eax, (%esp)
	movl	%eax, %ebx
.LEHB18:
	call	_ZN8STLQueueIjEC1Ev
.LEHE18:
	addl	$16, %esp
	movl	%ebx, 4(%esi)
.LEHB19:
	.loc 3 302 0
	.cfi_escape 0x2e,0x0
	call	_Z16getCachelineSizev
	movl	%eax, %ebx
.LVL293:
	.loc 3 303 0
	cmpl	$47, %eax
	jbe	.L374
	.p2align 4,,7
	.p2align 3
.L360:
	.loc 3 307 0
	leal	-28(%ebp), %edi
	pushl	%ecx
	pushl	%ebx
	pushl	%ebx
	pushl	%edi
	.cfi_escape 0x2e,0x10
	call	posix_memalign
	addl	$16, %esp
	testl	%eax, %eax
	je	.L361
	.loc 3 308 0
	subl	$12, %esp
	pushl	$.LC21
	pushl	$_ZZN19ConcurrentQueueCondIjEC1EiiiE8__func__
	pushl	$_ZZN19ConcurrentQueueCondIjEC1EiiiE19__PRETTY_FUNCTION__
	pushl	$.LC12
	pushl	$308
	.cfi_escape 0x2e,0x20
	call	vermont_exception
	addl	$32, %esp
.L361:
	.loc 3 309 0
	movl	-28(%ebp), %eax
.LVL294:
	movl	%eax, 12(%esi)
	.loc 3 310 0
	leal	4(%eax), %edx
	.loc 3 311 0
	movl	$0, (%eax)
	.loc 3 310 0
	movl	%edx, 16(%esi)
	.loc 3 312 0
	movl	$100, 4(%eax)
	.loc 3 315 0
	pushl	%edx
	pushl	%ebx
	pushl	%ebx
	pushl	%edi
	.cfi_escape 0x2e,0x10
	call	posix_memalign
	addl	$16, %esp
	testl	%eax, %eax
	je	.L362
	.loc 3 316 0
	subl	$12, %esp
	pushl	$.LC21
	pushl	$_ZZN19ConcurrentQueueCondIjEC1EiiiE8__func__
	pushl	$_ZZN19ConcurrentQueueCondIjEC1EiiiE19__PRETTY_FUNCTION__
	pushl	$.LC12
	pushl	$316
	.cfi_escape 0x2e,0x20
	call	vermont_exception
	addl	$32, %esp
.L362:
	.loc 3 317 0
	movl	-28(%ebp), %eax
	movl	%eax, 20(%esi)
	.loc 3 318 0
	leal	4(%eax), %edx
	.loc 3 319 0
	movl	$0, (%eax)
	.loc 3 320 0
	movl	$100, 4(%eax)
	.loc 3 318 0
	movl	%edx, 24(%esi)
	.loc 3 324 0
	pushl	%eax
	pushl	%ebx
	pushl	%ebx
	pushl	%edi
	.cfi_escape 0x2e,0x10
	call	posix_memalign
	addl	$16, %esp
	testl	%eax, %eax
	je	.L363
	.loc 3 325 0
	subl	$12, %esp
	pushl	$.LC21
	pushl	$_ZZN19ConcurrentQueueCondIjEC1EiiiE8__func__
	pushl	$_ZZN19ConcurrentQueueCondIjEC1EiiiE19__PRETTY_FUNCTION__
	pushl	$.LC12
	pushl	$325
	.cfi_escape 0x2e,0x20
	call	vermont_exception
	addl	$32, %esp
.L363:
	.loc 3 326 0
	movl	-28(%ebp), %eax
	movl	%eax, 36(%esi)
	.loc 3 327 0
	pushl	%ecx
	pushl	%ebx
	pushl	%ebx
	pushl	%edi
	.cfi_escape 0x2e,0x10
	call	posix_memalign
	addl	$16, %esp
	testl	%eax, %eax
	je	.L364
	.loc 3 328 0
	subl	$12, %esp
	pushl	$.LC21
	pushl	$_ZZN19ConcurrentQueueCondIjEC1EiiiE8__func__
	pushl	$_ZZN19ConcurrentQueueCondIjEC1EiiiE19__PRETTY_FUNCTION__
	pushl	$.LC12
	pushl	$328
	.cfi_escape 0x2e,0x20
	call	vermont_exception
	addl	$32, %esp
.L364:
	.loc 3 329 0
	movl	-28(%ebp), %eax
	movl	%eax, 40(%esi)
	.loc 3 330 0
	pushl	%edx
	pushl	%ebx
	pushl	%ebx
	pushl	%edi
	.cfi_escape 0x2e,0x10
	call	posix_memalign
	addl	$16, %esp
	testl	%eax, %eax
	je	.L365
	.loc 3 331 0
	subl	$12, %esp
	pushl	$.LC21
	pushl	$_ZZN19ConcurrentQueueCondIjEC1EiiiE8__func__
	pushl	$_ZZN19ConcurrentQueueCondIjEC1EiiiE19__PRETTY_FUNCTION__
	pushl	$.LC12
	pushl	$331
	.cfi_escape 0x2e,0x20
	call	vermont_exception
	addl	$32, %esp
.L365:
	.loc 3 332 0
	movl	-28(%ebp), %eax
	movl	%eax, 28(%esi)
	.loc 3 333 0
	pushl	%eax
	pushl	%ebx
	pushl	%ebx
	pushl	%edi
	.cfi_escape 0x2e,0x10
	call	posix_memalign
	addl	$16, %esp
	testl	%eax, %eax
	jne	.L375
	.loc 3 335 0
	movl	-28(%ebp), %eax
	movl	%eax, 32(%esi)
.LBE1835:
.LBE1839:
	.loc 3 336 0
	leal	-12(%ebp), %esp
	popl	%ebx
.LVL295:
	popl	%esi
.LVL296:
	popl	%edi
	popl	%ebp
	ret
.LVL297:
	.p2align 4,,7
	.p2align 3
.L374:
.LBB1840:
.LBB1830:
	.loc 3 304 0
	subl	$12, %esp
	pushl	$.LC26
	pushl	$_ZZN19ConcurrentQueueCondIjEC1EiiiE8__func__
	pushl	$_ZZN19ConcurrentQueueCondIjEC1EiiiE19__PRETTY_FUNCTION__
	pushl	$.LC12
	pushl	$304
	.cfi_escape 0x2e,0x20
	call	vermont_exception
.LVL298:
	addl	$32, %esp
	jmp	.L360
.LVL299:
	.p2align 4,,7
	.p2align 3
.L375:
	.loc 3 334 0
	subl	$12, %esp
	pushl	$.LC21
	pushl	$_ZZN19ConcurrentQueueCondIjEC1EiiiE8__func__
	pushl	$_ZZN19ConcurrentQueueCondIjEC1EiiiE19__PRETTY_FUNCTION__
	pushl	$.LC12
	pushl	$334
	call	vermont_exception
.LEHE19:
	.loc 3 335 0
	movl	-28(%ebp), %eax
	.loc 3 334 0
	addl	$32, %esp
	.loc 3 335 0
	movl	%eax, 32(%esi)
.LBE1830:
.LBE1840:
	.loc 3 336 0
	leal	-12(%ebp), %esp
	popl	%ebx
.LVL300:
	popl	%esi
.LVL301:
	popl	%edi
	popl	%ebp
	ret
.LVL302:
.L370:
.L359:
.LBB1841:
.LBB1836:
	.loc 3 282 0
	subl	$12, %esp
	movl	%eax, %edi
	pushl	%ebx
	.cfi_escape 0x2e,0x10
	call	_ZdlPv
	addl	$16, %esp
.LVL303:
.L367:
.L372:
.L368:
.LBE1836:
	.loc 3 335 0
	subl	$12, %esp
	leal	44(%esi), %eax
	pushl	%eax
	call	_ZNSsD1Ev
.LBB1837:
.LBB1838:
	.loc 3 34 0
	movl	$_ZTV19BaseConcurrentQueueIjE+8, (%esi)
	movl	%edi, (%esp)
.LEHB20:
	call	_Unwind_Resume
.LEHE20:
.L371:
	movl	%eax, %edi
	jmp	.L367
.LBE1838:
.LBE1837:
.LBE1841:
	.cfi_endproc
.LFE1510:
	.size	T.636, .-T.636
	.section	.gcc_except_table
.LLSDA1510:
	.byte	0xff
	.byte	0xff
	.byte	0x1
	.uleb128 .LLSDACSE1510-.LLSDACSB1510
.LLSDACSB1510:
	.uleb128 .LEHB17-.LFB1510
	.uleb128 .LEHE17-.LEHB17
	.uleb128 .L371-.LFB1510
	.uleb128 0x0
	.uleb128 .LEHB18-.LFB1510
	.uleb128 .LEHE18-.LEHB18
	.uleb128 .L370-.LFB1510
	.uleb128 0x0
	.uleb128 .LEHB19-.LFB1510
	.uleb128 .LEHE19-.LEHB19
	.uleb128 .L371-.LFB1510
	.uleb128 0x0
	.uleb128 .LEHB20-.LFB1510
	.uleb128 .LEHE20-.LEHB20
	.uleb128 0x0
	.uleb128 0x0
.LLSDACSE1510:
	.text
	.section	.text._ZN8STLQueueIjED0Ev,"axG",@progbits,_ZN8STLQueueIjED0Ev,comdat
	.align 2
	.p2align 4,,15
	.weak	_ZN8STLQueueIjED0Ev
	.type	_ZN8STLQueueIjED0Ev, @function
_ZN8STLQueueIjED0Ev:
.LFB1421:
	.loc 11 22 0
	.cfi_startproc
	.cfi_personality 0x0,__gxx_personality_v0
.LVL304:
	pushl	%ebp
.LCFI102:
	.cfi_def_cfa_offset 8
	movl	%esp, %ebp
	.cfi_offset 5, -8
.LCFI103:
	.cfi_def_cfa_register 5
	pushl	%edi
	pushl	%esi
	pushl	%ebx
	subl	$24, %esp
	.loc 11 22 0
	movl	8(%ebp), %ebx
	.cfi_offset 3, -20
	.cfi_offset 6, -16
	.cfi_offset 7, -12
	movl	$_ZTV8STLQueueIjE+8, (%ebx)
.LBB1866:
.LBB1867:
	.loc 12 41 0
	movl	$_ZTV5Mutex+8, 44(%ebx)
	.loc 12 42 0
	leal	48(%ebx), %eax
	pushl	%eax
	.cfi_escape 0x2e,0x10
	call	pthread_mutex_destroy
.LBE1867:
.LBE1866:
.LBB1868:
.LBB1869:
.LBB1870:
.LBB1871:
.LBB1872:
	.loc 8 474 0
	movl	4(%ebx), %eax
	addl	$16, %esp
.LBE1872:
.LBE1871:
	.loc 8 790 0
	leal	4(%ebx), %edx
.LBB1885:
.LBB1884:
	.loc 8 474 0
	testl	%eax, %eax
	je	.L377
.LVL305:
	.loc 8 476 0
	movl	36(%edx), %edi
	movl	20(%edx), %esi
.LVL306:
	addl	$4, %edi
.LBB1873:
.LBB1874:
	.loc 8 552 0
	cmpl	%esi, %edi
	jbe	.L378
	.p2align 4,,7
	.p2align 3
.L381:
.LBB1875:
.LBB1876:
.LBB1877:
	.loc 9 95 0
	subl	$12, %esp
	movl	(%esi), %eax
.LBE1877:
.LBE1876:
.LBE1875:
	.loc 8 552 0
	addl	$4, %esi
.LBB1880:
.LBB1879:
.LBB1878:
	.loc 9 95 0
	pushl	%eax
	call	_ZdlPv
.LBE1878:
.LBE1879:
.LBE1880:
	.loc 8 552 0
	addl	$16, %esp
	cmpl	%esi, %edi
	ja	.L381
	movl	4(%ebx), %eax
.L378:
.LBE1874:
.LBE1873:
.LBB1881:
.LBB1882:
.LBB1883:
	.loc 9 95 0
	subl	$12, %esp
	pushl	%eax
	call	_ZdlPv
	addl	$16, %esp
.L377:
.LBE1883:
.LBE1882:
.LBE1881:
.LBE1884:
.LBE1885:
.LBE1870:
.LBE1869:
.LBE1868:
.LBB1886:
.LBB1887:
	.loc 2 23 0
	movl	$_ZTV9BaseQueueIjE+8, (%ebx)
.LBE1887:
.LBE1886:
	.loc 11 22 0
	movl	%ebx, 8(%ebp)
	leal	-12(%ebp), %esp
	popl	%ebx
.LVL307:
	popl	%esi
.LVL308:
	popl	%edi
	popl	%ebp
	.cfi_escape 0x2e,0x4
	jmp	_ZdlPv
	.cfi_endproc
.LFE1421:
	.size	_ZN8STLQueueIjED0Ev, .-_ZN8STLQueueIjED0Ev
	.section	.text._ZN8STLQueueIjED1Ev,"axG",@progbits,_ZN8STLQueueIjED1Ev,comdat
	.align 2
	.p2align 4,,15
	.weak	_ZN8STLQueueIjED1Ev
	.type	_ZN8STLQueueIjED1Ev, @function
_ZN8STLQueueIjED1Ev:
.LFB1420:
	.loc 11 22 0
	.cfi_startproc
	.cfi_personality 0x0,__gxx_personality_v0
.LVL309:
	pushl	%ebp
.LCFI104:
	.cfi_def_cfa_offset 8
	movl	%esp, %ebp
	.cfi_offset 5, -8
.LCFI105:
	.cfi_def_cfa_register 5
	pushl	%edi
	pushl	%esi
	pushl	%ebx
	subl	$24, %esp
	.loc 11 22 0
	movl	8(%ebp), %ebx
	.cfi_offset 3, -20
	.cfi_offset 6, -16
	.cfi_offset 7, -12
	movl	$_ZTV8STLQueueIjE+8, (%ebx)
.LBB1912:
.LBB1913:
	.loc 12 41 0
	movl	$_ZTV5Mutex+8, 44(%ebx)
	.loc 12 42 0
	leal	48(%ebx), %eax
	pushl	%eax
	.cfi_escape 0x2e,0x10
	call	pthread_mutex_destroy
.LBE1913:
.LBE1912:
.LBB1914:
.LBB1915:
.LBB1916:
.LBB1917:
.LBB1918:
	.loc 8 474 0
	movl	4(%ebx), %eax
	addl	$16, %esp
.LBE1918:
.LBE1917:
	.loc 8 790 0
	leal	4(%ebx), %edx
.LBB1931:
.LBB1930:
	.loc 8 474 0
	testl	%eax, %eax
	je	.L384
.LVL310:
	.loc 8 476 0
	movl	36(%edx), %edi
	movl	20(%edx), %esi
.LVL311:
	addl	$4, %edi
.LBB1919:
.LBB1920:
	.loc 8 552 0
	cmpl	%esi, %edi
	jbe	.L385
	.p2align 4,,7
	.p2align 3
.L388:
.LBB1921:
.LBB1922:
.LBB1923:
	.loc 9 95 0
	subl	$12, %esp
	movl	(%esi), %edx
.LBE1923:
.LBE1922:
.LBE1921:
	.loc 8 552 0
	addl	$4, %esi
.LBB1926:
.LBB1925:
.LBB1924:
	.loc 9 95 0
	pushl	%edx
	call	_ZdlPv
.LBE1924:
.LBE1925:
.LBE1926:
	.loc 8 552 0
	addl	$16, %esp
	cmpl	%esi, %edi
	ja	.L388
	movl	4(%ebx), %eax
.L385:
.LBE1920:
.LBE1919:
.LBB1927:
.LBB1928:
.LBB1929:
	.loc 9 95 0
	subl	$12, %esp
	pushl	%eax
	call	_ZdlPv
	addl	$16, %esp
.L384:
.LBE1929:
.LBE1928:
.LBE1927:
.LBE1930:
.LBE1931:
.LBE1916:
.LBE1915:
.LBE1914:
.LBB1932:
.LBB1933:
	.loc 2 23 0
	movl	$_ZTV9BaseQueueIjE+8, (%ebx)
.LBE1933:
.LBE1932:
	.loc 11 22 0
	leal	-12(%ebp), %esp
	popl	%ebx
.LVL312:
	popl	%esi
.LVL313:
	popl	%edi
	popl	%ebp
	ret
	.cfi_endproc
.LFE1420:
	.size	_ZN8STLQueueIjED1Ev, .-_ZN8STLQueueIjED1Ev
	.section	.rodata.str1.4
	.align 4
.LC27:
	.string	"WARNING: freeing non-empty queue - got count: %d"
	.section	.text._ZN19ConcurrentQueueCondIjED0Ev,"axG",@progbits,_ZN19ConcurrentQueueCondIjED0Ev,comdat
	.align 2
	.p2align 4,,15
	.weak	_ZN19ConcurrentQueueCondIjED0Ev
	.type	_ZN19ConcurrentQueueCondIjED0Ev, @function
_ZN19ConcurrentQueueCondIjED0Ev:
.LFB1461:
	.loc 3 338 0
	.cfi_startproc
	.cfi_personality 0x0,__gxx_personality_v0
	.cfi_lsda 0x0,.LLSDA1461
.LVL314:
	pushl	%ebp
.LCFI106:
	.cfi_def_cfa_offset 8
	movl	%esp, %ebp
	.cfi_offset 5, -8
.LCFI107:
	.cfi_def_cfa_register 5
	pushl	%ebx
	subl	$36, %esp
	.loc 3 338 0
	movl	8(%ebp), %ebx
	.cfi_offset 3, -12
.LBB1957:
.LBB1960:
.LBB1961:
	.loc 3 461 0
	movl	12(%ebx), %eax
.LBE1961:
.LBE1960:
	.loc 3 343 0
	movl	$_ZTV19ConcurrentQueueCondIjE+8, (%ebx)
.LBB1963:
.LBB1962:
	.loc 3 461 0
	movl	(%eax), %edx
	movl	20(%ebx), %eax
	movl	(%eax), %eax
.LBE1962:
.LBE1963:
	.loc 3 340 0
	cmpl	%eax, %edx
	je	.L391
.LVL315:
	.loc 3 341 0
	subl	%eax, %edx
	pushl	%ecx
	pushl	%edx
	pushl	$.LC27
	pushl	$4
	pushl	$_ZZN19ConcurrentQueueCondIjED1EvE8__func__
	pushl	$_ZZN19ConcurrentQueueCondIjED1EvE19__PRETTY_FUNCTION__
	pushl	$.LC12
	pushl	$341
.LEHB21:
	.cfi_escape 0x2e,0x20
	call	msg2
.LEHE21:
	addl	$32, %esp
.L391:
.LBB1964:
.LBB1966:
.LBB1967:
	.loc 16 281 0
	movl	44(%ebx), %eax
	subl	$12, %eax
.LBE1967:
.LBE1966:
.LBB1968:
.LBB1970:
	.loc 16 227 0
	cmpl	$_ZNSs4_Rep20_S_empty_rep_storageE, %eax
	jne	.L400
.LVL316:
.L393:
.LBE1970:
.LBE1968:
.LBE1964:
.LBE1957:
	.loc 3 341 0
	subl	$12, %esp
.LBB1985:
.LBB1958:
.LBB1959:
	.loc 3 34 0
	movl	$_ZTV19BaseConcurrentQueueIjE+8, (%ebx)
.LBE1959:
.LBE1958:
.LBE1985:
	.loc 3 341 0
	pushl	%ebx
	.cfi_escape 0x2e,0x10
	call	_ZdlPv
.LVL317:
	addl	$16, %esp
	.loc 3 343 0
	movl	-4(%ebp), %ebx
.LVL318:
	leave
	ret
.LVL319:
.L400:
.LBB1986:
.LBB1981:
.LBB1965:
.LBB1969:
.LBB1971:
.LBB1972:
	.file 17 "/usr/include/c++/4.4/ext/atomicity.h"
	.loc 17 78 0
	movl	$_ZL22__gthrw_pthread_cancelm, %edx
	testl	%edx, %edx
	je	.L394
.LBB1973:
.LBB1974:
	.loc 17 46 0
	orl	$-1, %edx
	lock xaddl	%edx, 8(%eax)
.LVL320:
.L395:
.LBE1974:
.LBE1973:
.LBE1972:
.LBE1971:
	.loc 16 229 0
	testl	%edx, %edx
	jg	.L393
	.loc 16 231 0
	leal	-9(%ebp), %edx
.LVL321:
	pushl	%ecx
	pushl	%ecx
	pushl	%edx
	pushl	%eax
	call	_ZNSs4_Rep10_M_destroyERKSaIcE
	addl	$16, %esp
	jmp	.L393
.L398:
.L392:
.L399:
.L396:
.LBE1969:
.LBE1965:
.LBE1981:
	.loc 3 341 0
	subl	$12, %esp
	leal	44(%ebx), %edx
	movl	%eax, -28(%ebp)
	pushl	%edx
	call	_ZNSsD1Ev
.LBB1982:
.LBB1983:
	.loc 3 34 0
	movl	$_ZTV19BaseConcurrentQueueIjE+8, (%ebx)
	movl	-28(%ebp), %eax
	movl	%eax, (%esp)
.LEHB22:
	call	_Unwind_Resume
.LEHE22:
.L394:
.LBE1983:
.LBE1982:
.LBB1984:
.LBB1980:
.LBB1979:
.LBB1978:
.LBB1977:
.LBB1975:
.LBB1976:
	.loc 17 64 0
	movl	8(%eax), %edx
.LVL322:
	.loc 17 65 0
	leal	-1(%edx), %ecx
	movl	%ecx, 8(%eax)
	jmp	.L395
.LBE1976:
.LBE1975:
.LBE1977:
.LBE1978:
.LBE1979:
.LBE1980:
.LBE1984:
.LBE1986:
	.cfi_endproc
.LFE1461:
	.size	_ZN19ConcurrentQueueCondIjED0Ev, .-_ZN19ConcurrentQueueCondIjED0Ev
	.section	.gcc_except_table
.LLSDA1461:
	.byte	0xff
	.byte	0xff
	.byte	0x1
	.uleb128 .LLSDACSE1461-.LLSDACSB1461
.LLSDACSB1461:
	.uleb128 .LEHB21-.LFB1461
	.uleb128 .LEHE21-.LEHB21
	.uleb128 .L398-.LFB1461
	.uleb128 0x0
	.uleb128 .LEHB22-.LFB1461
	.uleb128 .LEHE22-.LEHB22
	.uleb128 0x0
	.uleb128 0x0
.LLSDACSE1461:
	.section	.text._ZN19ConcurrentQueueCondIjED0Ev,"axG",@progbits,_ZN19ConcurrentQueueCondIjED0Ev,comdat
	.section	.text._ZN19ConcurrentQueueCondIjED1Ev,"axG",@progbits,_ZN19ConcurrentQueueCondIjED1Ev,comdat
	.align 2
	.p2align 4,,15
	.weak	_ZN19ConcurrentQueueCondIjED1Ev
	.type	_ZN19ConcurrentQueueCondIjED1Ev, @function
_ZN19ConcurrentQueueCondIjED1Ev:
.LFB1460:
	.loc 3 338 0
	.cfi_startproc
	.cfi_personality 0x0,__gxx_personality_v0
	.cfi_lsda 0x0,.LLSDA1460
.LVL323:
	pushl	%ebp
.LCFI108:
	.cfi_def_cfa_offset 8
	movl	%esp, %ebp
	.cfi_offset 5, -8
.LCFI109:
	.cfi_def_cfa_register 5
	pushl	%ebx
	subl	$36, %esp
	.loc 3 338 0
	movl	8(%ebp), %ebx
	.cfi_offset 3, -12
.LBB2010:
.LBB2031:
.LBB2032:
	.loc 3 461 0
	movl	12(%ebx), %eax
.LBE2032:
.LBE2031:
	.loc 3 343 0
	movl	$_ZTV19ConcurrentQueueCondIjE+8, (%ebx)
.LBB2030:
.LBB2033:
	.loc 3 461 0
	movl	(%eax), %edx
	movl	20(%ebx), %eax
	movl	(%eax), %eax
.LBE2033:
.LBE2030:
	.loc 3 340 0
	cmpl	%eax, %edx
	je	.L402
.LVL324:
	.loc 3 341 0
	subl	%eax, %edx
	pushl	%ecx
	pushl	%edx
	pushl	$.LC27
	pushl	$4
	pushl	$_ZZN19ConcurrentQueueCondIjED1EvE8__func__
	pushl	$_ZZN19ConcurrentQueueCondIjED1EvE19__PRETTY_FUNCTION__
	pushl	$.LC12
	pushl	$341
.LEHB23:
	.cfi_escape 0x2e,0x20
	call	msg2
.LEHE23:
	addl	$32, %esp
.L402:
.LBB2013:
.LBB2015:
.LBB2016:
	.loc 16 281 0
	movl	44(%ebx), %eax
	subl	$12, %eax
.LBE2016:
.LBE2015:
.LBB2017:
.LBB2019:
	.loc 16 227 0
	cmpl	$_ZNSs4_Rep20_S_empty_rep_storageE, %eax
	jne	.L411
.LVL325:
.L404:
.LBE2019:
.LBE2017:
.LBE2013:
.LBB2011:
.LBB2012:
	.loc 3 34 0
	movl	$_ZTV19BaseConcurrentQueueIjE+8, (%ebx)
.LBE2012:
.LBE2011:
.LBE2010:
	.loc 3 343 0
	movl	-4(%ebp), %ebx
.LVL326:
	leave
	ret
.LVL327:
.L411:
.LBB2038:
.LBB2034:
.LBB2014:
.LBB2018:
.LBB2020:
.LBB2021:
	.loc 17 78 0
	movl	$_ZL22__gthrw_pthread_cancelm, %edx
	testl	%edx, %edx
	je	.L405
.LBB2022:
.LBB2023:
	.loc 17 46 0
	orl	$-1, %edx
	lock xaddl	%edx, 8(%eax)
.LVL328:
.L406:
.LBE2023:
.LBE2022:
.LBE2021:
.LBE2020:
	.loc 16 229 0
	testl	%edx, %edx
	jg	.L404
.LVL329:
	.loc 16 231 0
	pushl	%edx
	pushl	%edx
	leal	-9(%ebp), %edx
	pushl	%edx
	pushl	%eax
	.cfi_escape 0x2e,0x10
	call	_ZNSs4_Rep10_M_destroyERKSaIcE
	addl	$16, %esp
	jmp	.L404
.L409:
.L403:
.L410:
.L407:
.LBE2018:
.LBE2014:
.LBE2034:
	.loc 3 341 0
	subl	$12, %esp
	leal	44(%ebx), %edx
	movl	%eax, -28(%ebp)
	pushl	%edx
	call	_ZNSsD1Ev
.LBB2035:
.LBB2036:
	.loc 3 34 0
	movl	$_ZTV19BaseConcurrentQueueIjE+8, (%ebx)
	movl	-28(%ebp), %eax
	movl	%eax, (%esp)
.LEHB24:
	call	_Unwind_Resume
.LEHE24:
.L405:
.LBE2036:
.LBE2035:
.LBB2037:
.LBB2029:
.LBB2028:
.LBB2027:
.LBB2026:
.LBB2024:
.LBB2025:
	.loc 17 64 0
	movl	8(%eax), %edx
.LVL330:
	.loc 17 65 0
	leal	-1(%edx), %ecx
	movl	%ecx, 8(%eax)
	jmp	.L406
.LBE2025:
.LBE2024:
.LBE2026:
.LBE2027:
.LBE2028:
.LBE2029:
.LBE2037:
.LBE2038:
	.cfi_endproc
.LFE1460:
	.size	_ZN19ConcurrentQueueCondIjED1Ev, .-_ZN19ConcurrentQueueCondIjED1Ev
	.section	.gcc_except_table
.LLSDA1460:
	.byte	0xff
	.byte	0xff
	.byte	0x1
	.uleb128 .LLSDACSE1460-.LLSDACSB1460
.LLSDACSB1460:
	.uleb128 .LEHB23-.LFB1460
	.uleb128 .LEHE23-.LEHB23
	.uleb128 .L409-.LFB1460
	.uleb128 0x0
	.uleb128 .LEHB24-.LFB1460
	.uleb128 .LEHE24-.LEHB24
	.uleb128 0x0
	.uleb128 0x0
.LLSDACSE1460:
	.section	.text._ZN19ConcurrentQueueCondIjED1Ev,"axG",@progbits,_ZN19ConcurrentQueueCondIjED1Ev,comdat
	.section	.text._ZN23ConcurrentQueueSpinlockIjED0Ev,"axG",@progbits,_ZN23ConcurrentQueueSpinlockIjED0Ev,comdat
	.align 2
	.p2align 4,,15
	.weak	_ZN23ConcurrentQueueSpinlockIjED0Ev
	.type	_ZN23ConcurrentQueueSpinlockIjED0Ev, @function
_ZN23ConcurrentQueueSpinlockIjED0Ev:
.LFB1453:
	.loc 3 550 0
	.cfi_startproc
	.cfi_personality 0x0,__gxx_personality_v0
	.cfi_lsda 0x0,.LLSDA1453
.LVL331:
	pushl	%ebp
.LCFI110:
	.cfi_def_cfa_offset 8
	movl	%esp, %ebp
	.cfi_offset 5, -8
.LCFI111:
	.cfi_def_cfa_register 5
	pushl	%ebx
	subl	$36, %esp
	.loc 3 550 0
	movl	8(%ebp), %ebx
	.cfi_offset 3, -12
.LBB2062:
.LBB2065:
.LBB2066:
	.loc 3 603 0
	movl	8(%ebx), %eax
.LBE2066:
.LBE2065:
	.loc 3 555 0
	movl	$_ZTV23ConcurrentQueueSpinlockIjE+8, (%ebx)
.LBB2068:
.LBB2067:
	.loc 3 603 0
	movl	(%eax), %edx
	movl	16(%ebx), %eax
	movl	(%eax), %eax
.LBE2067:
.LBE2068:
	.loc 3 552 0
	cmpl	%eax, %edx
	je	.L413
.LVL332:
	.loc 3 553 0
	subl	%eax, %edx
	pushl	%ecx
	pushl	%edx
	pushl	$.LC27
	pushl	$4
	pushl	$_ZZN23ConcurrentQueueSpinlockIjED1EvE8__func__
	pushl	$_ZZN23ConcurrentQueueSpinlockIjED1EvE19__PRETTY_FUNCTION__
	pushl	$.LC12
	pushl	$553
.LEHB25:
	.cfi_escape 0x2e,0x20
	call	msg2
.LEHE25:
	addl	$32, %esp
.L413:
.LBB2069:
.LBB2071:
.LBB2072:
	.loc 16 281 0
	movl	28(%ebx), %eax
	subl	$12, %eax
.LBE2072:
.LBE2071:
.LBB2073:
.LBB2075:
	.loc 16 227 0
	cmpl	$_ZNSs4_Rep20_S_empty_rep_storageE, %eax
	jne	.L422
.LVL333:
.L415:
.LBE2075:
.LBE2073:
.LBE2069:
.LBE2062:
	.loc 3 553 0
	subl	$12, %esp
.LBB2090:
.LBB2063:
.LBB2064:
	.loc 3 34 0
	movl	$_ZTV19BaseConcurrentQueueIjE+8, (%ebx)
.LBE2064:
.LBE2063:
.LBE2090:
	.loc 3 553 0
	pushl	%ebx
	.cfi_escape 0x2e,0x10
	call	_ZdlPv
.LVL334:
	addl	$16, %esp
	.loc 3 555 0
	movl	-4(%ebp), %ebx
.LVL335:
	leave
	ret
.LVL336:
.L422:
.LBB2091:
.LBB2086:
.LBB2070:
.LBB2074:
.LBB2076:
.LBB2077:
	.loc 17 78 0
	movl	$_ZL22__gthrw_pthread_cancelm, %edx
	testl	%edx, %edx
	je	.L416
.LBB2078:
.LBB2079:
	.loc 17 46 0
	orl	$-1, %edx
	lock xaddl	%edx, 8(%eax)
.LVL337:
.L417:
.LBE2079:
.LBE2078:
.LBE2077:
.LBE2076:
	.loc 16 229 0
	testl	%edx, %edx
	jg	.L415
.LVL338:
	.loc 16 231 0
	pushl	%edx
	pushl	%edx
	leal	-9(%ebp), %edx
	pushl	%edx
	pushl	%eax
	call	_ZNSs4_Rep10_M_destroyERKSaIcE
	addl	$16, %esp
	jmp	.L415
.L420:
.L414:
.L421:
.L418:
.LBE2074:
.LBE2070:
.LBE2086:
	.loc 3 553 0
	subl	$12, %esp
	leal	28(%ebx), %edx
	movl	%eax, -28(%ebp)
	pushl	%edx
	call	_ZNSsD1Ev
.LBB2087:
.LBB2088:
	.loc 3 34 0
	movl	$_ZTV19BaseConcurrentQueueIjE+8, (%ebx)
	movl	-28(%ebp), %eax
	movl	%eax, (%esp)
.LEHB26:
	call	_Unwind_Resume
.LEHE26:
.L416:
.LBE2088:
.LBE2087:
.LBB2089:
.LBB2085:
.LBB2084:
.LBB2083:
.LBB2082:
.LBB2080:
.LBB2081:
	.loc 17 64 0
	movl	8(%eax), %edx
.LVL339:
	.loc 17 65 0
	leal	-1(%edx), %ecx
	movl	%ecx, 8(%eax)
	jmp	.L417
.LBE2081:
.LBE2080:
.LBE2082:
.LBE2083:
.LBE2084:
.LBE2085:
.LBE2089:
.LBE2091:
	.cfi_endproc
.LFE1453:
	.size	_ZN23ConcurrentQueueSpinlockIjED0Ev, .-_ZN23ConcurrentQueueSpinlockIjED0Ev
	.section	.gcc_except_table
.LLSDA1453:
	.byte	0xff
	.byte	0xff
	.byte	0x1
	.uleb128 .LLSDACSE1453-.LLSDACSB1453
.LLSDACSB1453:
	.uleb128 .LEHB25-.LFB1453
	.uleb128 .LEHE25-.LEHB25
	.uleb128 .L420-.LFB1453
	.uleb128 0x0
	.uleb128 .LEHB26-.LFB1453
	.uleb128 .LEHE26-.LEHB26
	.uleb128 0x0
	.uleb128 0x0
.LLSDACSE1453:
	.section	.text._ZN23ConcurrentQueueSpinlockIjED0Ev,"axG",@progbits,_ZN23ConcurrentQueueSpinlockIjED0Ev,comdat
	.section	.text._ZN23ConcurrentQueueSpinlockIjED1Ev,"axG",@progbits,_ZN23ConcurrentQueueSpinlockIjED1Ev,comdat
	.align 2
	.p2align 4,,15
	.weak	_ZN23ConcurrentQueueSpinlockIjED1Ev
	.type	_ZN23ConcurrentQueueSpinlockIjED1Ev, @function
_ZN23ConcurrentQueueSpinlockIjED1Ev:
.LFB1452:
	.loc 3 550 0
	.cfi_startproc
	.cfi_personality 0x0,__gxx_personality_v0
	.cfi_lsda 0x0,.LLSDA1452
.LVL340:
	pushl	%ebp
.LCFI112:
	.cfi_def_cfa_offset 8
	movl	%esp, %ebp
	.cfi_offset 5, -8
.LCFI113:
	.cfi_def_cfa_register 5
	pushl	%ebx
	subl	$36, %esp
	.loc 3 550 0
	movl	8(%ebp), %ebx
	.cfi_offset 3, -12
.LBB2115:
.LBB2136:
.LBB2137:
	.loc 3 603 0
	movl	8(%ebx), %eax
.LBE2137:
.LBE2136:
	.loc 3 555 0
	movl	$_ZTV23ConcurrentQueueSpinlockIjE+8, (%ebx)
.LBB2135:
.LBB2138:
	.loc 3 603 0
	movl	(%eax), %edx
	movl	16(%ebx), %eax
	movl	(%eax), %eax
.LBE2138:
.LBE2135:
	.loc 3 552 0
	cmpl	%eax, %edx
	je	.L424
.LVL341:
	.loc 3 553 0
	subl	%eax, %edx
	pushl	%ecx
	pushl	%edx
	pushl	$.LC27
	pushl	$4
	pushl	$_ZZN23ConcurrentQueueSpinlockIjED1EvE8__func__
	pushl	$_ZZN23ConcurrentQueueSpinlockIjED1EvE19__PRETTY_FUNCTION__
	pushl	$.LC12
	pushl	$553
.LEHB27:
	.cfi_escape 0x2e,0x20
	call	msg2
.LEHE27:
	addl	$32, %esp
.L424:
.LBB2118:
.LBB2120:
.LBB2121:
	.loc 16 281 0
	movl	28(%ebx), %eax
	subl	$12, %eax
.LBE2121:
.LBE2120:
.LBB2122:
.LBB2124:
	.loc 16 227 0
	cmpl	$_ZNSs4_Rep20_S_empty_rep_storageE, %eax
	jne	.L433
.LVL342:
.L426:
.LBE2124:
.LBE2122:
.LBE2118:
.LBB2116:
.LBB2117:
	.loc 3 34 0
	movl	$_ZTV19BaseConcurrentQueueIjE+8, (%ebx)
.LBE2117:
.LBE2116:
.LBE2115:
	.loc 3 555 0
	movl	-4(%ebp), %ebx
.LVL343:
	leave
	ret
.LVL344:
.L433:
.LBB2143:
.LBB2139:
.LBB2119:
.LBB2123:
.LBB2125:
.LBB2126:
	.loc 17 78 0
	movl	$_ZL22__gthrw_pthread_cancelm, %edx
	testl	%edx, %edx
	je	.L427
.LBB2127:
.LBB2128:
	.loc 17 46 0
	orl	$-1, %edx
	lock xaddl	%edx, 8(%eax)
.LVL345:
.L428:
.LBE2128:
.LBE2127:
.LBE2126:
.LBE2125:
	.loc 16 229 0
	testl	%edx, %edx
	jg	.L426
.LVL346:
	.loc 16 231 0
	pushl	%edx
	pushl	%edx
	leal	-9(%ebp), %edx
	pushl	%edx
	pushl	%eax
	.cfi_escape 0x2e,0x10
	call	_ZNSs4_Rep10_M_destroyERKSaIcE
	addl	$16, %esp
	jmp	.L426
.L431:
.L425:
.L432:
.L429:
.LBE2123:
.LBE2119:
.LBE2139:
	.loc 3 553 0
	subl	$12, %esp
	leal	28(%ebx), %edx
	movl	%eax, -28(%ebp)
	pushl	%edx
	call	_ZNSsD1Ev
.LBB2140:
.LBB2141:
	.loc 3 34 0
	movl	$_ZTV19BaseConcurrentQueueIjE+8, (%ebx)
	movl	-28(%ebp), %eax
	movl	%eax, (%esp)
.LEHB28:
	call	_Unwind_Resume
.LEHE28:
.L427:
.LBE2141:
.LBE2140:
.LBB2142:
.LBB2134:
.LBB2133:
.LBB2132:
.LBB2131:
.LBB2129:
.LBB2130:
	.loc 17 64 0
	movl	8(%eax), %edx
.LVL347:
	.loc 17 65 0
	leal	-1(%edx), %ecx
	movl	%ecx, 8(%eax)
	jmp	.L428
.LBE2130:
.LBE2129:
.LBE2131:
.LBE2132:
.LBE2133:
.LBE2134:
.LBE2142:
.LBE2143:
	.cfi_endproc
.LFE1452:
	.size	_ZN23ConcurrentQueueSpinlockIjED1Ev, .-_ZN23ConcurrentQueueSpinlockIjED1Ev
	.section	.gcc_except_table
.LLSDA1452:
	.byte	0xff
	.byte	0xff
	.byte	0x1
	.uleb128 .LLSDACSE1452-.LLSDACSB1452
.LLSDACSB1452:
	.uleb128 .LEHB27-.LFB1452
	.uleb128 .LEHE27-.LEHB27
	.uleb128 .L431-.LFB1452
	.uleb128 0x0
	.uleb128 .LEHB28-.LFB1452
	.uleb128 .LEHE28-.LEHB28
	.uleb128 0x0
	.uleb128 0x0
.LLSDACSE1452:
	.section	.text._ZN23ConcurrentQueueSpinlockIjED1Ev,"axG",@progbits,_ZN23ConcurrentQueueSpinlockIjED1Ev,comdat
	.section	.rodata.str1.4
	.align 4
.LC28:
	.string	"failed to initialize semaphore, sem_init exited with code %d"
	.text
	.align 2
	.p2align 4,,15
	.type	T.635, @function
T.635:
.LFB1509:
	.loc 3 59 0
	.cfi_startproc
	.cfi_personality 0x0,__gxx_personality_v0
	.cfi_lsda 0x0,.LLSDA1509
.LVL348:
	pushl	%ebp
.LCFI114:
	.cfi_def_cfa_offset 8
	movl	%esp, %ebp
	.cfi_offset 5, -8
.LCFI115:
	.cfi_def_cfa_register 5
	pushl	%esi
	pushl	%ebx
	movl	%edx, %esi
	.cfi_offset 3, -16
	.cfi_offset 6, -12
	subl	$28, %esp
.LBB2162:
	.loc 3 60 0
	movl	$_ZTV15ConcurrentQueueIjE+8, (%eax)
	movl	$0, 8(%eax)
	movl	$0, 12(%eax)
.LBB2173:
.LBB2175:
	.loc 6 38 0
	movl	$_ZTV16TimeoutSemaphore+8, 20(%eax)
	movb	$0, 28(%eax)
.LBE2175:
.LBE2173:
.LBE2162:
	.loc 3 59 0
	movl	%eax, %ebx
.LBB2183:
.LBB2172:
.LBB2174:
.LBB2176:
	.loc 6 40 0
	pushl	$16
.LEHB29:
	.cfi_escape 0x2e,0x10
	call	_Znwj
.LEHE29:
.LVL349:
	addl	$12, %esp
	movl	%eax, 24(%ebx)
	.loc 6 42 0
	movl	$0, 32(%ebx)
	.loc 6 43 0
	movl	$0, 36(%ebx)
	.loc 6 45 0
	pushl	$0
	pushl	$0
	pushl	%eax
	call	sem_init
	.loc 6 47 0
	addl	$16, %esp
	testl	%eax, %eax
.LVL350:
	jne	.L449
.L435:
.LBE2176:
.LBE2174:
.LBE2172:
.LBB2166:
.LBB2167:
.LBB2169:
	.loc 6 40 0
	subl	$12, %esp
.LBE2169:
	.loc 6 38 0
	movl	$_ZTV16TimeoutSemaphore+8, 56(%ebx)
	movb	$0, 64(%ebx)
.LBB2168:
	.loc 6 40 0
	pushl	$16
.LEHB30:
	call	_Znwj
.LEHE30:
.LVL351:
	addl	$12, %esp
	movl	%eax, 60(%ebx)
	.loc 6 42 0
	movl	$0, 68(%ebx)
	.loc 6 43 0
	movl	$0, 72(%ebx)
	.loc 6 45 0
	pushl	%esi
	pushl	$0
	pushl	%eax
	call	sem_init
	.loc 6 47 0
	addl	$16, %esp
	testl	%eax, %eax
.LVL352:
	jne	.L450
.L436:
.LBE2168:
.LBE2167:
.LBE2166:
	.loc 3 66 0
	subl	$12, %esp
.LBB2163:
.LBB2164:
.LBB2165:
	.loc 16 255 0
	movl	$_ZNSs4_Rep20_S_empty_rep_storageE+12, 92(%ebx)
.LBE2165:
.LBE2164:
.LBE2163:
	.loc 3 60 0
	movl	$0, 96(%ebx)
	.loc 3 62 0
	movl	%esi, 16(%ebx)
	.loc 3 66 0
	pushl	$72
.LEHB31:
	call	_Znwj
.LEHE31:
.LVL353:
	movl	%eax, %esi
.LVL354:
	movl	%eax, (%esp)
.LEHB32:
	call	_ZN8STLQueueIjEC1Ev
.LEHE32:
	movl	%esi, 4(%ebx)
	addl	$16, %esp
.LBE2183:
	.loc 3 83 0
	leal	-8(%ebp), %esp
	popl	%ebx
.LVL355:
	popl	%esi
	popl	%ebp
	ret
.LVL356:
	.p2align 4,,7
	.p2align 3
.L449:
.LBB2184:
.LBB2179:
.LBB2178:
.LBB2177:
	.loc 6 48 0
	.cfi_escape 0x2e,0x0
	call	__errno_location
.LVL357:
	pushl	%edx
	pushl	%edx
	movl	(%eax), %ecx
	pushl	%ecx
	pushl	$.LC28
	pushl	$_ZZN16TimeoutSemaphoreC1EiE8__func__
	pushl	$_ZZN16TimeoutSemaphoreC1EiE19__PRETTY_FUNCTION__
	pushl	$.LC4
	pushl	$48
.LEHB33:
	.cfi_escape 0x2e,0x20
	call	vermont_exception
.LEHE33:
	addl	$32, %esp
	jmp	.L435
.LVL358:
	.p2align 4,,7
	.p2align 3
.L450:
.LBE2177:
.LBE2178:
.LBE2179:
.LBB2180:
.LBB2171:
.LBB2170:
	.cfi_escape 0x2e,0x0
	call	__errno_location
.LVL359:
	pushl	%edx
	pushl	%edx
	movl	(%eax), %eax
	pushl	%eax
	pushl	$.LC28
	pushl	$_ZZN16TimeoutSemaphoreC1EiE8__func__
	pushl	$_ZZN16TimeoutSemaphoreC1EiE19__PRETTY_FUNCTION__
	pushl	$.LC4
	pushl	$48
.LEHB34:
	.cfi_escape 0x2e,0x20
	call	vermont_exception
.LEHE34:
	addl	$32, %esp
	jmp	.L436
.L448:
.L442:
.LBE2170:
.LBE2171:
.LBE2180:
.LBB2181:
.LBB2182:
	.loc 3 34 0
	subl	$12, %esp
	movl	$_ZTV19BaseConcurrentQueueIjE+8, (%ebx)
	pushl	%eax
.LEHB35:
	.cfi_escape 0x2e,0x10
	call	_Unwind_Resume
.LEHE35:
.L447:
.L441:
.LBE2182:
.LBE2181:
	.loc 3 81 0
	subl	$12, %esp
	leal	20(%ebx), %edx
	movl	%eax, -12(%ebp)
	pushl	%edx
	call	_ZN16TimeoutSemaphoreD1Ev
	addl	$16, %esp
	movl	-12(%ebp), %eax
	jmp	.L442
.LVL360:
.L444:
.L438:
	.loc 3 66 0
	subl	$12, %esp
	movl	%eax, -12(%ebp)
	pushl	%esi
	call	_ZdlPv
	addl	$16, %esp
	movl	-12(%ebp), %eax
.LVL361:
.L439:
.L446:
.L440:
	.loc 3 81 0
	subl	$12, %esp
	leal	92(%ebx), %edx
	movl	%eax, -12(%ebp)
	pushl	%edx
	call	_ZNSsD1Ev
	leal	56(%ebx), %edx
	movl	%edx, (%esp)
	call	_ZN16TimeoutSemaphoreD1Ev
	addl	$16, %esp
	movl	-12(%ebp), %eax
	jmp	.L441
.L445:
	jmp	.L439
.LBE2184:
	.cfi_endproc
.LFE1509:
	.size	T.635, .-T.635
	.section	.gcc_except_table
.LLSDA1509:
	.byte	0xff
	.byte	0xff
	.byte	0x1
	.uleb128 .LLSDACSE1509-.LLSDACSB1509
.LLSDACSB1509:
	.uleb128 .LEHB29-.LFB1509
	.uleb128 .LEHE29-.LEHB29
	.uleb128 .L448-.LFB1509
	.uleb128 0x0
	.uleb128 .LEHB30-.LFB1509
	.uleb128 .LEHE30-.LEHB30
	.uleb128 .L447-.LFB1509
	.uleb128 0x0
	.uleb128 .LEHB31-.LFB1509
	.uleb128 .LEHE31-.LEHB31
	.uleb128 .L445-.LFB1509
	.uleb128 0x0
	.uleb128 .LEHB32-.LFB1509
	.uleb128 .LEHE32-.LEHB32
	.uleb128 .L444-.LFB1509
	.uleb128 0x0
	.uleb128 .LEHB33-.LFB1509
	.uleb128 .LEHE33-.LEHB33
	.uleb128 .L448-.LFB1509
	.uleb128 0x0
	.uleb128 .LEHB34-.LFB1509
	.uleb128 .LEHE34-.LEHB34
	.uleb128 .L447-.LFB1509
	.uleb128 0x0
	.uleb128 .LEHB35-.LFB1509
	.uleb128 .LEHE35-.LEHB35
	.uleb128 0x0
	.uleb128 0x0
.LLSDACSE1509:
	.text
	.section	.rodata.str1.1
.LC29:
	.string	"semaphore is invalid"
.LC30:
	.string	"Could not pop element"
	.section	.rodata.str1.4
	.align 4
.LC31:
	.string	"semaphore is invalid, sem_post returned with %d"
	.section	.text._ZN15ConcurrentQueueIjE6popAbsERK8timespecPj,"axG",@progbits,_ZN15ConcurrentQueueIjE6popAbsERK8timespecPj,comdat
	.align 2
	.p2align 4,,15
	.weak	_ZN15ConcurrentQueueIjE6popAbsERK8timespecPj
	.type	_ZN15ConcurrentQueueIjE6popAbsERK8timespecPj, @function
_ZN15ConcurrentQueueIjE6popAbsERK8timespecPj:
.LFB1471:
	.loc 3 201 0
	.cfi_startproc
	.cfi_personality 0x0,__gxx_personality_v0
.LVL362:
	pushl	%ebp
.LCFI116:
	.cfi_def_cfa_offset 8
	movl	%esp, %ebp
	.cfi_offset 5, -8
.LCFI117:
	.cfi_def_cfa_register 5
	pushl	%esi
	pushl	%ebx
	.loc 3 201 0
	movl	8(%ebp), %ebx
	.cfi_offset 3, -16
	.cfi_offset 6, -12
	movl	16(%ebp), %esi
.LBB2191:
.LBB2193:
.LBB2195:
	.loc 6 160 0
	cmpb	$0, 28(%ebx)
	je	.L460
.LVL363:
.L452:
.LBE2195:
.LBE2193:
	.loc 3 208 0
	movl	$0, (%esi)
	xorl	%eax, %eax
.LVL364:
.L455:
.LBE2191:
	.loc 3 224 0
	leal	-8(%ebp), %esp
	popl	%ebx
.LVL365:
	popl	%esi
.LVL366:
	popl	%ebp
	ret
.LVL367:
	.p2align 4,,7
	.p2align 3
.L460:
.LBB2204:
.LBB2197:
.LBB2194:
	.loc 6 163 0
	pushl	%edx
	pushl	%edx
	movl	12(%ebp), %eax
	pushl	%eax
	movl	24(%ebx), %ecx
	pushl	%ecx
	.cfi_escape 0x2e,0x10
	call	sem_timedwait
	.loc 6 164 0
	addl	$16, %esp
	testl	%eax, %eax
.LVL368:
	jne	.L461
.LVL369:
.LBE2194:
.LBE2197:
	.loc 3 214 0
	movl	4(%ebx), %eax
.LVL370:
	pushl	%ecx
	pushl	%ecx
	movl	(%eax), %edx
	pushl	%esi
	pushl	%eax
	call	*12(%edx)
	addl	$16, %esp
	testb	%al, %al
	jne	.L458
	.loc 3 215 0
	subl	$12, %esp
	pushl	$.LC30
	pushl	$_ZZN15ConcurrentQueueIjE6popAbsERK8timespecPjE8__func__
	pushl	$_ZZN15ConcurrentQueueIjE6popAbsERK8timespecPjE19__PRETTY_FUNCTION__
	pushl	$.LC12
	pushl	$215
	.cfi_escape 0x2e,0x20
	call	vermont_exception
	addl	$32, %esp
.L458:
	.loc 3 216 0
	movl	12(%ebx), %edx
	.loc 3 217 0
	movl	96(%ebx), %eax
	.loc 3 216 0
	incl	%edx
.LBB2198:
.LBB2200:
	.loc 6 188 0
	subl	$12, %esp
.LBE2200:
.LBE2198:
	.loc 3 217 0
	decl	%eax
	.loc 3 216 0
	movl	%edx, 12(%ebx)
	.loc 3 217 0
	movl	%eax, 96(%ebx)
.LBB2202:
.LBB2199:
	.loc 6 188 0
	movl	60(%ebx), %eax
	pushl	%eax
	.cfi_escape 0x2e,0x10
	call	sem_post
	movl	%eax, %edx
.LVL371:
	.loc 6 190 0
	addl	$16, %esp
	movb	$1, %al
	testl	%edx, %edx
	je	.L455
	.loc 6 191 0
	.cfi_escape 0x2e,0x0
	call	__errno_location
.LVL372:
.LVL373:
	pushl	%esi
	pushl	%esi
	movl	(%eax), %ebx
.LVL374:
	pushl	%ebx
	pushl	$.LC31
	pushl	$_ZZN16TimeoutSemaphore4postEvE8__func__
	pushl	$_ZZN16TimeoutSemaphore4postEvE19__PRETTY_FUNCTION__
	pushl	$.LC4
	pushl	$191
	.cfi_escape 0x2e,0x20
	call	vermont_exception
	addl	$32, %esp
.LBE2199:
.LBE2202:
.LBE2204:
	.loc 3 224 0
	leal	-8(%ebp), %esp
.LBB2205:
.LBB2192:
.LBB2201:
	.loc 6 191 0
	movb	$1, %al
.LBE2201:
.LBE2192:
.LBE2205:
	.loc 3 224 0
	popl	%ebx
	popl	%esi
	popl	%ebp
	ret
.LVL375:
	.p2align 4,,7
	.p2align 3
.L461:
.LBB2206:
.LBB2203:
.LBB2196:
	.loc 6 164 0
	cmpl	$22, %eax
	jne	.L452
	.loc 6 169 0
	subl	$12, %esp
	pushl	$.LC29
	pushl	$_ZZN16TimeoutSemaphore7waitAbsERK8timespecE8__func__
	pushl	$_ZZN16TimeoutSemaphore7waitAbsERK8timespecE19__PRETTY_FUNCTION__
	pushl	$.LC4
	pushl	$169
	call	vermont_exception
.LVL376:
	addl	$32, %esp
	jmp	.L452
.LBE2196:
.LBE2203:
.LBE2206:
	.cfi_endproc
.LFE1471:
	.size	_ZN15ConcurrentQueueIjE6popAbsERK8timespecPj, .-_ZN15ConcurrentQueueIjE6popAbsERK8timespecPj
	.section	.text._ZN8STLQueueIjE4pushEj,"axG",@progbits,_ZN8STLQueueIjE4pushEj,comdat
	.align 2
	.p2align 4,,15
	.weak	_ZN8STLQueueIjE4pushEj
	.type	_ZN8STLQueueIjE4pushEj, @function
_ZN8STLQueueIjE4pushEj:
.LFB1422:
	.loc 11 29 0
	.cfi_startproc
	.cfi_personality 0x0,__gxx_personality_v0
	.cfi_lsda 0x0,.LLSDA1422
.LVL377:
	pushl	%ebp
.LCFI118:
	.cfi_def_cfa_offset 8
	movl	%esp, %ebp
	.cfi_offset 5, -8
.LCFI119:
	.cfi_def_cfa_register 5
	pushl	%edi
	pushl	%esi
	pushl	%ebx
	subl	$56, %esp
	.loc 11 29 0
	movl	8(%ebp), %ebx
	.cfi_offset 3, -20
	.cfi_offset 6, -16
	.cfi_offset 7, -12
	movl	12(%ebp), %edi
.LBB2273:
.LBB2275:
	.loc 12 47 0
	leal	48(%ebx), %esi
	pushl	%esi
	.cfi_escape 0x2e,0x10
	call	pthread_mutex_lock
	.loc 12 48 0
	addl	$16, %esp
	cmpl	$22, %eax
.LVL378:
	je	.L465
.LVL379:
	cmpl	$35, %eax
	je	.L466
	testl	%eax, %eax
	jne	.L487
.L464:
.LBE2275:
.LBE2273:
.LBB2278:
.LBB2280:
.LBB2282:
	.loc 8 1203 0
	movl	36(%ebx), %edx
	movl	28(%ebx), %eax
.LVL380:
	subl	$4, %edx
	cmpl	%edx, %eax
	je	.L467
.L489:
.LBB2348:
.LBB2349:
	.loc 9 105 0
	xorl	%edx, %edx
	testl	%eax, %eax
	je	.L469
	movl	%edi, (%eax)
	movl	28(%ebx), %edx
.L469:
.LBE2349:
.LBE2348:
	.loc 8 1207 0
	addl	$4, %edx
	movl	%edx, 28(%ebx)
.L470:
.LBE2282:
.LBE2280:
.LBE2278:
.LBB2355:
.LBB2357:
	.loc 12 65 0
	subl	$12, %esp
	pushl	%esi
	call	pthread_mutex_unlock
	.loc 12 66 0
	addl	$16, %esp
	cmpl	$1, %eax
.LVL381:
	je	.L481
	cmpl	$22, %eax
	je	.L482
	testl	%eax, %eax
	jne	.L488
.LBE2357:
.LBE2355:
	.loc 11 35 0
	leal	-12(%ebp), %esp
	movb	$1, %al
.LVL382:
	popl	%ebx
.LVL383:
	popl	%esi
	popl	%edi
.LVL384:
	popl	%ebp
	ret
.LVL385:
	.p2align 4,,7
	.p2align 3
.L488:
.LBB2360:
.LBB2358:
	.loc 12 76 0
	pushl	%ecx
	pushl	%ecx
	pushl	%eax
	pushl	$.LC10
	pushl	$_ZZN5Mutex6unlockEvE8__func__
	pushl	$_ZZN5Mutex6unlockEvE19__PRETTY_FUNCTION__
	pushl	$.LC6
	pushl	$76
.LEHB36:
	.cfi_escape 0x2e,0x20
	call	vermont_exception
.LVL386:
	addl	$32, %esp
.LBE2358:
.LBE2360:
	.loc 11 35 0
	leal	-12(%ebp), %esp
	movb	$1, %al
	popl	%ebx
.LVL387:
	popl	%esi
	popl	%edi
.LVL388:
	popl	%ebp
	ret
.LVL389:
	.p2align 4,,7
	.p2align 3
.L487:
.LBB2361:
.LBB2276:
	.loc 12 58 0
	pushl	%edx
	pushl	%edx
	pushl	%eax
	pushl	$.LC8
	pushl	$_ZZN5Mutex4lockEvE8__func__
	pushl	$_ZZN5Mutex4lockEvE19__PRETTY_FUNCTION__
	pushl	$.LC6
	pushl	$58
	call	vermont_exception
.LVL390:
.LBE2276:
.LBE2361:
.LBB2362:
.LBB2353:
.LBB2351:
	.loc 8 1203 0
	movl	36(%ebx), %edx
	movl	28(%ebx), %eax
	subl	$4, %edx
.LBE2351:
.LBE2353:
.LBE2362:
.LBB2363:
.LBB2274:
	.loc 12 58 0
	addl	$32, %esp
.LBE2274:
.LBE2363:
.LBB2364:
.LBB2279:
.LBB2281:
	.loc 8 1203 0
	cmpl	%edx, %eax
	jne	.L489
.L467:
.LBB2283:
.LBB2284:
.LBB2296:
.LBB2297:
	.loc 8 1717 0
	movl	4(%ebx), %eax
	movl	40(%ebx), %edx
	movl	%eax, -28(%ebp)
	movl	%edx, %eax
	subl	-28(%ebp), %eax
	movl	8(%ebx), %ecx
	sarl	$2, %eax
	movl	%eax, -32(%ebp)
	movl	%ecx, %eax
	subl	-32(%ebp), %eax
	cmpl	$1, %eax
	jbe	.L490
.LVL391:
.L471:
.LBE2297:
.LBE2296:
.LBB2293:
.LBB2294:
.LBB2295:
	.loc 9 89 0
	subl	$12, %esp
	pushl	$512
	movl	%edx, -44(%ebp)
	.cfi_escape 0x2e,0x10
	call	_Znwj
.LVL392:
.LBE2295:
.LBE2294:
.LBE2293:
	.loc 13 369 0
	movl	-44(%ebp), %edx
.LBB2290:
.LBB2291:
	.loc 9 105 0
	addl	$16, %esp
.LBE2291:
.LBE2290:
	.loc 13 369 0
	movl	%eax, 4(%edx)
	.loc 13 376 0
	movl	28(%ebx), %eax
.LBB2289:
.LBB2292:
	.loc 9 105 0
	testl	%eax, %eax
	je	.L478
	movl	%edi, (%eax)
.L478:
.LBE2292:
.LBE2289:
	.loc 13 378 0
	movl	40(%ebx), %eax
	leal	4(%eax), %edx
.LBB2286:
.LBB2287:
	.loc 8 225 0
	movl	4(%eax), %eax
	.loc 8 224 0
	movl	%edx, 40(%ebx)
	.loc 8 225 0
	movl	%eax, 32(%ebx)
	.loc 8 226 0
	leal	512(%eax), %edx
.LBE2287:
.LBE2286:
	.loc 13 380 0
	movl	%eax, 28(%ebx)
.LBB2285:
.LBB2288:
	.loc 8 226 0
	movl	%edx, 36(%ebx)
	jmp	.L470
.LVL393:
	.p2align 4,,7
	.p2align 3
.L482:
.LBE2288:
.LBE2285:
.LBE2284:
.LBE2283:
.LBE2281:
.LBE2279:
.LBE2364:
.LBB2365:
.LBB2356:
	.loc 12 70 0
	subl	$12, %esp
	pushl	$.LC5
	pushl	$_ZZN5Mutex6unlockEvE8__func__
	pushl	$_ZZN5Mutex6unlockEvE19__PRETTY_FUNCTION__
	pushl	$.LC6
	pushl	$70
	.cfi_escape 0x2e,0x20
	call	vermont_exception
.LVL394:
	addl	$32, %esp
.LBE2356:
.LBE2365:
	.loc 11 35 0
	leal	-12(%ebp), %esp
	movb	$1, %al
	popl	%ebx
.LVL395:
	popl	%esi
	popl	%edi
.LVL396:
	popl	%ebp
	ret
.LVL397:
	.p2align 4,,7
	.p2align 3
.L481:
.LBB2366:
.LBB2359:
	.loc 12 73 0
	subl	$12, %esp
	pushl	$.LC9
	pushl	$_ZZN5Mutex6unlockEvE8__func__
	pushl	$_ZZN5Mutex6unlockEvE19__PRETTY_FUNCTION__
	pushl	$.LC6
	pushl	$73
	call	vermont_exception
.LVL398:
	addl	$32, %esp
.LBE2359:
.LBE2366:
	.loc 11 35 0
	leal	-12(%ebp), %esp
	movb	$1, %al
	popl	%ebx
.LVL399:
	popl	%esi
	popl	%edi
.LVL400:
	popl	%ebp
	ret
.LVL401:
	.p2align 4,,7
	.p2align 3
.L466:
.LBB2367:
.LBB2277:
	.loc 12 55 0
	subl	$12, %esp
	pushl	$.LC7
	pushl	$_ZZN5Mutex4lockEvE8__func__
	pushl	$_ZZN5Mutex4lockEvE19__PRETTY_FUNCTION__
	pushl	$.LC6
	pushl	$55
	call	vermont_exception
.LVL402:
	addl	$32, %esp
	jmp	.L464
.LVL403:
	.p2align 4,,7
	.p2align 3
.L465:
	.loc 12 52 0
	subl	$12, %esp
	pushl	$.LC5
	pushl	$_ZZN5Mutex4lockEvE8__func__
	pushl	$_ZZN5Mutex4lockEvE19__PRETTY_FUNCTION__
	pushl	$.LC6
	pushl	$52
	call	vermont_exception
.LEHE36:
.LVL404:
	addl	$32, %esp
	jmp	.L464
	.p2align 4,,7
	.p2align 3
.L490:
.LBE2277:
.LBE2367:
.LBB2368:
.LBB2354:
.LBB2352:
.LBB2350:
.LBB2347:
.LBB2346:
.LBB2345:
.LBB2298:
.LBB2299:
.LBB2300:
	.loc 13 799 0
	movl	24(%ebx), %eax
	movl	%eax, -32(%ebp)
	movl	%edx, %eax
	subl	-32(%ebp), %eax
	sarl	$2, %eax
	movl	%eax, -36(%ebp)
	incl	%eax
	movl	%eax, -40(%ebp)
	.loc 13 800 0
	movl	-36(%ebp), %eax
	addl	$2, %eax
	movl	%eax, -36(%ebp)
	.loc 13 803 0
	addl	%eax, %eax
	cmpl	%eax, %ecx
	jbe	.L472
	.loc 13 805 0
	movl	-36(%ebp), %eax
	subl	%eax, %ecx
	movl	-28(%ebp), %eax
	shrl	%ecx
	leal	(%eax,%ecx,4), %ecx
.LVL405:
	.loc 13 808 0
	cmpl	%ecx, -32(%ebp)
	jbe	.L473
.LBB2301:
.LBB2302:
.LBB2303:
.LBB2304:
.LBB2305:
.LBB2306:
	.loc 15 378 0
	pushl	%eax
	addl	$4, %edx
	movl	-32(%ebp), %eax
	subl	%eax, %edx
	andl	$-4, %edx
	pushl	%edx
	movl	-32(%ebp), %edx
	pushl	%edx
	pushl	%ecx
	movl	%ecx, -48(%ebp)
.LVL406:
	.cfi_escape 0x2e,0x10
	call	memmove
	addl	$16, %esp
	movl	-48(%ebp), %ecx
.L474:
.LBE2306:
.LBE2305:
.LBE2304:
.LBE2303:
.LBE2302:
.LBE2301:
.LBB2307:
.LBB2308:
	.loc 8 225 0
	movl	(%ecx), %eax
.LVL407:
	.loc 8 224 0
	movl	%ecx, 24(%ebx)
	.loc 8 225 0
	movl	%eax, 16(%ebx)
	.loc 8 226 0
	addl	$512, %eax
	movl	%eax, 20(%ebx)
.LBE2308:
.LBE2307:
	.loc 13 836 0
	movl	-40(%ebp), %eax
	leal	-4(%ecx,%eax,4), %edx
.LBB2309:
.LBB2310:
	.loc 8 224 0
	movl	%edx, 40(%ebx)
	.loc 8 225 0
	movl	(%edx), %eax
	movl	%eax, 32(%ebx)
	.loc 8 226 0
	addl	$512, %eax
	movl	%eax, 36(%ebx)
	jmp	.L471
.LVL408:
.L472:
.LBE2310:
.LBE2309:
.LBB2311:
.LBB2326:
.LBB2329:
.LBB2332:
	.loc 9 87 0
	movl	$3, -28(%ebp)
.LBE2332:
.LBE2329:
.LBE2326:
.LBB2324:
.LBB2325:
	.loc 15 214 0
	testl	%ecx, %ecx
	je	.L476
.LBE2325:
.LBE2324:
	.loc 13 821 0
	leal	2(%ecx,%ecx), %ecx
	movl	%ecx, -28(%ebp)
.LBB2323:
.LBB2328:
.LBB2331:
	.loc 9 86 0
	cmpl	$1073741823, %ecx
	ja	.L491
.L476:
	.loc 9 89 0
	movl	-28(%ebp), %eax
	subl	$12, %esp
	sall	$2, %eax
	pushl	%eax
.LEHB37:
	call	_Znwj
.LBE2331:
.LBE2328:
.LBE2323:
	.loc 13 824 0
	movl	-36(%ebp), %ecx
.LBB2322:
.LBB2335:
.LBB2333:
	.loc 9 89 0
	movl	%eax, %edx
.LBE2333:
.LBE2335:
.LBE2322:
	.loc 13 824 0
	movl	-28(%ebp), %eax
.LBB2321:
.LBB2327:
.LBB2330:
	.loc 9 89 0
	addl	$12, %esp
.LBE2330:
.LBE2327:
.LBE2321:
	.loc 13 824 0
	subl	%ecx, %eax
	shrl	%eax
	leal	(%edx,%eax,4), %ecx
.LVL409:
.LBB2315:
.LBB2316:
.LBB2317:
.LBB2318:
.LBB2319:
.LBB2320:
	.loc 15 378 0
	movl	40(%ebx), %eax
	addl	$4, %eax
	subl	24(%ebx), %eax
	andl	$-4, %eax
	pushl	%eax
	movl	24(%ebx), %eax
	pushl	%eax
	pushl	%ecx
	movl	%ecx, -48(%ebp)
.LVL410:
	movl	%edx, -44(%ebp)
	call	memmove
.LBE2320:
.LBE2319:
.LBE2318:
.LBE2317:
.LBE2316:
.LBE2315:
.LBB2312:
.LBB2313:
.LBB2314:
	.loc 9 95 0
	popl	%edx
	movl	4(%ebx), %eax
	pushl	%eax
	call	_ZdlPv
.LBE2314:
.LBE2313:
.LBE2312:
	.loc 13 831 0
	movl	-44(%ebp), %edx
	.loc 13 832 0
	movl	-28(%ebp), %eax
	.loc 13 831 0
	movl	%edx, 4(%ebx)
	.loc 13 832 0
	movl	%eax, 8(%ebx)
	addl	$16, %esp
	movl	-48(%ebp), %ecx
	jmp	.L474
.LVL411:
.L473:
.LBE2311:
.LBB2338:
.LBB2339:
.LBB2340:
.LBB2341:
.LBB2342:
.LBB2343:
	.loc 15 575 0
	movl	-32(%ebp), %eax
	addl	$4, %edx
	subl	%eax, %edx
	pushl	%eax
	andl	$-4, %edx
	pushl	%edx
	movl	-32(%ebp), %eax
	pushl	%eax
	movl	-40(%ebp), %eax
	leal	(%ecx,%eax,4), %eax
	subl	%edx, %eax
	pushl	%eax
	movl	%ecx, -48(%ebp)
.LVL412:
	call	memmove
	addl	$16, %esp
	movl	-48(%ebp), %ecx
	jmp	.L474
.L491:
.LBE2343:
.LBE2342:
.LBE2341:
.LBE2340:
.LBE2339:
.LBE2338:
.LBB2344:
.LBB2337:
.LBB2336:
.LBB2334:
	.loc 9 87 0
	.cfi_escape 0x2e,0x0
	call	_ZSt17__throw_bad_allocv
.LEHE37:
.L484:
.L477:
.LBE2334:
.LBE2336:
.LBE2337:
	.loc 13 832 0
	subl	$12, %esp
	pushl	%eax
.LEHB38:
	.cfi_escape 0x2e,0x10
	call	_Unwind_Resume
.LEHE38:
.LBE2344:
.LBE2300:
.LBE2299:
.LBE2298:
.LBE2345:
.LBE2346:
.LBE2347:
.LBE2350:
.LBE2352:
.LBE2354:
.LBE2368:
	.cfi_endproc
.LFE1422:
	.size	_ZN8STLQueueIjE4pushEj, .-_ZN8STLQueueIjE4pushEj
	.section	.gcc_except_table
.LLSDA1422:
	.byte	0xff
	.byte	0xff
	.byte	0x1
	.uleb128 .LLSDACSE1422-.LLSDACSB1422
.LLSDACSB1422:
	.uleb128 .LEHB36-.LFB1422
	.uleb128 .LEHE36-.LEHB36
	.uleb128 0x0
	.uleb128 0x0
	.uleb128 .LEHB37-.LFB1422
	.uleb128 .LEHE37-.LEHB37
	.uleb128 .L484-.LFB1422
	.uleb128 0x0
	.uleb128 .LEHB38-.LFB1422
	.uleb128 .LEHE38-.LEHB38
	.uleb128 0x0
	.uleb128 0x0
.LLSDACSE1422:
	.section	.text._ZN8STLQueueIjE4pushEj,"axG",@progbits,_ZN8STLQueueIjE4pushEj,comdat
	.section	.text._ZN15ConcurrentQueueIjED0Ev,"axG",@progbits,_ZN15ConcurrentQueueIjED0Ev,comdat
	.align 2
	.p2align 4,,15
	.weak	_ZN15ConcurrentQueueIjED0Ev
	.type	_ZN15ConcurrentQueueIjED0Ev, @function
_ZN15ConcurrentQueueIjED0Ev:
.LFB1468:
	.loc 3 85 0
	.cfi_startproc
	.cfi_personality 0x0,__gxx_personality_v0
	.cfi_lsda 0x0,.LLSDA1468
.LVL413:
	pushl	%ebp
.LCFI120:
	.cfi_def_cfa_offset 8
	movl	%esp, %ebp
	.cfi_offset 5, -8
.LCFI121:
	.cfi_def_cfa_register 5
	pushl	%ebx
	subl	$36, %esp
	.loc 3 85 0
	movl	8(%ebp), %ebx
	.cfi_offset 3, -12
.LBB2400:
.LBB2433:
.LBB2434:
	.loc 3 228 0
	movl	96(%ebx), %eax
.LBE2434:
.LBE2433:
	.loc 3 90 0
	movl	$_ZTV15ConcurrentQueueIjE+8, (%ebx)
	.loc 3 87 0
	testl	%eax, %eax
	je	.L493
.LVL414:
.LBB2431:
.LBB2432:
	.loc 3 228 0
	movl	96(%ebx), %eax
.LBE2432:
.LBE2431:
	.loc 3 88 0
	pushl	%ecx
	pushl	%eax
	pushl	$.LC27
	pushl	$4
	pushl	$_ZZN15ConcurrentQueueIjED1EvE8__func__
	pushl	$_ZZN15ConcurrentQueueIjED1EvE19__PRETTY_FUNCTION__
	pushl	$.LC12
	pushl	$88
.LEHB39:
	.cfi_escape 0x2e,0x20
	call	msg2
.LEHE39:
	addl	$32, %esp
.L493:
.LBB2414:
.LBB2416:
.LBB2417:
	.loc 16 281 0
	movl	92(%ebx), %eax
	subl	$12, %eax
.LBE2417:
.LBE2416:
.LBB2418:
.LBB2420:
	.loc 16 227 0
	cmpl	$_ZNSs4_Rep20_S_empty_rep_storageE, %eax
	jne	.L509
.LVL415:
.L495:
.LBE2420:
.LBE2418:
.LBE2414:
.LBB2408:
.LBB2409:
.LBB2411:
	.loc 6 55 0
	subl	$12, %esp
.LBE2411:
	.loc 6 54 0
	movl	$_ZTV16TimeoutSemaphore+8, 56(%ebx)
.LBB2410:
	.loc 6 55 0
	movl	60(%ebx), %eax
	pushl	%eax
	.cfi_escape 0x2e,0x10
	call	sem_destroy
.LVL416:
	.loc 6 56 0
	addl	$16, %esp
	testl	%eax, %eax
.LVL417:
	jne	.L510
.L499:
	.loc 6 59 0
	subl	$12, %esp
	movl	60(%ebx), %ecx
	pushl	%ecx
	call	_ZdlPv
.LVL418:
.LBE2410:
.LBE2409:
.LBE2408:
.LBB2403:
.LBB2404:
	.loc 6 54 0
	movl	$_ZTV16TimeoutSemaphore+8, 20(%ebx)
.LBB2405:
	.loc 6 55 0
	movl	24(%ebx), %eax
	popl	%edx
	pushl	%eax
	call	sem_destroy
	.loc 6 56 0
	addl	$16, %esp
	testl	%eax, %eax
.LVL419:
	jne	.L511
.L501:
	.loc 6 59 0
	subl	$12, %esp
	movl	24(%ebx), %ecx
	pushl	%ecx
	call	_ZdlPv
.LVL420:
.LBE2405:
.LBE2404:
.LBE2403:
.LBB2401:
.LBB2402:
	.loc 3 34 0
	movl	$_ZTV19BaseConcurrentQueueIjE+8, (%ebx)
.LBE2402:
.LBE2401:
.LBE2400:
	.loc 3 88 0
	movl	%ebx, (%esp)
	call	_ZdlPv
	.loc 3 90 0
	movl	-4(%ebp), %ebx
.LVL421:
	leave
	ret
.LVL422:
	.p2align 4,,7
	.p2align 3
.L510:
.LBB2441:
.LBB2435:
.LBB2413:
.LBB2412:
	.loc 6 57 0
	subl	$12, %esp
	pushl	$.LC3
	pushl	$_ZZN16TimeoutSemaphoreD1EvE8__func__
	pushl	$_ZZN16TimeoutSemaphoreD1EvE19__PRETTY_FUNCTION__
	pushl	$.LC4
	pushl	$57
.LEHB40:
	.cfi_escape 0x2e,0x20
	call	vermont_exception
.LEHE40:
.LVL423:
	addl	$32, %esp
	jmp	.L499
.LVL424:
	.p2align 4,,7
	.p2align 3
.L511:
.LBE2412:
.LBE2413:
.LBE2435:
.LBB2436:
.LBB2407:
.LBB2406:
	subl	$12, %esp
	pushl	$.LC3
	pushl	$_ZZN16TimeoutSemaphoreD1EvE8__func__
	pushl	$_ZZN16TimeoutSemaphoreD1EvE19__PRETTY_FUNCTION__
	pushl	$.LC4
	pushl	$57
.LEHB41:
	call	vermont_exception
.LEHE41:
.LVL425:
	addl	$32, %esp
	jmp	.L501
.L509:
.LBE2406:
.LBE2407:
.LBE2436:
.LBB2437:
.LBB2415:
.LBB2419:
.LBB2421:
.LBB2422:
	.loc 17 78 0
	movl	$_ZL22__gthrw_pthread_cancelm, %edx
	testl	%edx, %edx
	je	.L496
.LBB2423:
.LBB2424:
	.loc 17 46 0
	orl	$-1, %edx
	lock xaddl	%edx, 8(%eax)
.LVL426:
.L497:
.LBE2424:
.LBE2423:
.LBE2422:
.LBE2421:
	.loc 16 229 0
	testl	%edx, %edx
	jg	.L495
.LVL427:
	.loc 16 231 0
	pushl	%edx
	pushl	%edx
	leal	-9(%ebp), %edx
	pushl	%edx
	pushl	%eax
	.cfi_escape 0x2e,0x10
	call	_ZNSs4_Rep10_M_destroyERKSaIcE
	addl	$16, %esp
	jmp	.L495
.L505:
.L494:
.L506:
.L498:
.LBE2419:
.LBE2415:
.LBE2437:
	.loc 3 88 0
	subl	$12, %esp
	leal	92(%ebx), %edx
	movl	%eax, -28(%ebp)
	pushl	%edx
	call	_ZNSsD1Ev
	leal	56(%ebx), %edx
	movl	%edx, (%esp)
	call	_ZN16TimeoutSemaphoreD1Ev
	addl	$16, %esp
	movl	-28(%ebp), %eax
.L502:
	subl	$12, %esp
	leal	20(%ebx), %edx
	movl	%eax, -28(%ebp)
	pushl	%edx
	call	_ZN16TimeoutSemaphoreD1Ev
	addl	$16, %esp
	movl	-28(%ebp), %eax
.L503:
.LBB2438:
.LBB2439:
	.loc 3 34 0
	subl	$12, %esp
	movl	$_ZTV19BaseConcurrentQueueIjE+8, (%ebx)
	pushl	%eax
.LEHB42:
	call	_Unwind_Resume
.LEHE42:
.L496:
.LBE2439:
.LBE2438:
.LBB2440:
.LBB2430:
.LBB2429:
.LBB2428:
.LBB2427:
.LBB2425:
.LBB2426:
	.loc 17 64 0
	movl	8(%eax), %edx
.LVL428:
	.loc 17 65 0
	leal	-1(%edx), %ecx
	movl	%ecx, 8(%eax)
	jmp	.L497
.LVL429:
.L507:
	jmp	.L502
.L508:
	jmp	.L503
.LBE2426:
.LBE2425:
.LBE2427:
.LBE2428:
.LBE2429:
.LBE2430:
.LBE2440:
.LBE2441:
	.cfi_endproc
.LFE1468:
	.size	_ZN15ConcurrentQueueIjED0Ev, .-_ZN15ConcurrentQueueIjED0Ev
	.section	.gcc_except_table
.LLSDA1468:
	.byte	0xff
	.byte	0xff
	.byte	0x1
	.uleb128 .LLSDACSE1468-.LLSDACSB1468
.LLSDACSB1468:
	.uleb128 .LEHB39-.LFB1468
	.uleb128 .LEHE39-.LEHB39
	.uleb128 .L505-.LFB1468
	.uleb128 0x0
	.uleb128 .LEHB40-.LFB1468
	.uleb128 .LEHE40-.LEHB40
	.uleb128 .L507-.LFB1468
	.uleb128 0x0
	.uleb128 .LEHB41-.LFB1468
	.uleb128 .LEHE41-.LEHB41
	.uleb128 .L508-.LFB1468
	.uleb128 0x0
	.uleb128 .LEHB42-.LFB1468
	.uleb128 .LEHE42-.LEHB42
	.uleb128 0x0
	.uleb128 0x0
.LLSDACSE1468:
	.section	.text._ZN15ConcurrentQueueIjED0Ev,"axG",@progbits,_ZN15ConcurrentQueueIjED0Ev,comdat
	.section	.text._ZN15ConcurrentQueueIjED1Ev,"axG",@progbits,_ZN15ConcurrentQueueIjED1Ev,comdat
	.align 2
	.p2align 4,,15
	.weak	_ZN15ConcurrentQueueIjED1Ev
	.type	_ZN15ConcurrentQueueIjED1Ev, @function
_ZN15ConcurrentQueueIjED1Ev:
.LFB1467:
	.loc 3 85 0
	.cfi_startproc
	.cfi_personality 0x0,__gxx_personality_v0
	.cfi_lsda 0x0,.LLSDA1467
.LVL430:
	pushl	%ebp
.LCFI122:
	.cfi_def_cfa_offset 8
	movl	%esp, %ebp
	.cfi_offset 5, -8
.LCFI123:
	.cfi_def_cfa_register 5
	pushl	%ebx
	subl	$36, %esp
	.loc 3 85 0
	movl	8(%ebp), %ebx
	.cfi_offset 3, -12
.LBB2473:
.LBB2506:
.LBB2507:
	.loc 3 228 0
	movl	96(%ebx), %eax
.LBE2507:
.LBE2506:
	.loc 3 90 0
	movl	$_ZTV15ConcurrentQueueIjE+8, (%ebx)
	.loc 3 87 0
	testl	%eax, %eax
	je	.L513
.LVL431:
.LBB2504:
.LBB2505:
	.loc 3 228 0
	movl	96(%ebx), %eax
.LBE2505:
.LBE2504:
	.loc 3 88 0
	pushl	%edx
	pushl	%eax
	pushl	$.LC27
	pushl	$4
	pushl	$_ZZN15ConcurrentQueueIjED1EvE8__func__
	pushl	$_ZZN15ConcurrentQueueIjED1EvE19__PRETTY_FUNCTION__
	pushl	$.LC12
	pushl	$88
.LEHB43:
	.cfi_escape 0x2e,0x20
	call	msg2
.LEHE43:
	addl	$32, %esp
.L513:
.LBB2487:
.LBB2489:
.LBB2490:
	.loc 16 281 0
	movl	92(%ebx), %eax
	subl	$12, %eax
.LBE2490:
.LBE2489:
.LBB2491:
.LBB2493:
	.loc 16 227 0
	cmpl	$_ZNSs4_Rep20_S_empty_rep_storageE, %eax
	jne	.L529
.LVL432:
.L515:
.LBE2493:
.LBE2491:
.LBE2487:
.LBB2481:
.LBB2482:
.LBB2484:
	.loc 6 55 0
	subl	$12, %esp
.LBE2484:
	.loc 6 54 0
	movl	$_ZTV16TimeoutSemaphore+8, 56(%ebx)
.LBB2483:
	.loc 6 55 0
	movl	60(%ebx), %edx
.LVL433:
	pushl	%edx
	.cfi_escape 0x2e,0x10
	call	sem_destroy
	.loc 6 56 0
	addl	$16, %esp
	testl	%eax, %eax
.LVL434:
	jne	.L530
.L519:
	.loc 6 59 0
	subl	$12, %esp
	movl	60(%ebx), %eax
.LVL435:
	pushl	%eax
	call	_ZdlPv
.LBE2483:
.LBE2482:
.LBE2481:
.LBB2476:
.LBB2477:
	.loc 6 54 0
	movl	$_ZTV16TimeoutSemaphore+8, 20(%ebx)
.LBB2478:
	.loc 6 55 0
	movl	24(%ebx), %edx
	popl	%ecx
	pushl	%edx
	call	sem_destroy
	.loc 6 56 0
	addl	$16, %esp
	testl	%eax, %eax
.LVL436:
	jne	.L531
.L521:
	.loc 6 59 0
	subl	$12, %esp
	movl	24(%ebx), %eax
.LVL437:
	pushl	%eax
	call	_ZdlPv
.LBE2478:
.LBE2477:
.LBE2476:
.LBB2474:
.LBB2475:
	.loc 3 34 0
	movl	$_ZTV19BaseConcurrentQueueIjE+8, (%ebx)
.LBE2475:
.LBE2474:
.LBE2473:
	.loc 3 90 0
	movl	-4(%ebp), %ebx
.LVL438:
	leave
	ret
.LVL439:
	.p2align 4,,7
	.p2align 3
.L530:
.LBB2514:
.LBB2508:
.LBB2486:
.LBB2485:
	.loc 6 57 0
	subl	$12, %esp
	pushl	$.LC3
	pushl	$_ZZN16TimeoutSemaphoreD1EvE8__func__
	pushl	$_ZZN16TimeoutSemaphoreD1EvE19__PRETTY_FUNCTION__
	pushl	$.LC4
	pushl	$57
.LEHB44:
	.cfi_escape 0x2e,0x20
	call	vermont_exception
.LEHE44:
.LVL440:
	addl	$32, %esp
	jmp	.L519
.LVL441:
	.p2align 4,,7
	.p2align 3
.L531:
.LBE2485:
.LBE2486:
.LBE2508:
.LBB2509:
.LBB2480:
.LBB2479:
	subl	$12, %esp
	pushl	$.LC3
	pushl	$_ZZN16TimeoutSemaphoreD1EvE8__func__
	pushl	$_ZZN16TimeoutSemaphoreD1EvE19__PRETTY_FUNCTION__
	pushl	$.LC4
	pushl	$57
.LEHB45:
	call	vermont_exception
.LEHE45:
.LVL442:
	addl	$32, %esp
	jmp	.L521
.L529:
.LBE2479:
.LBE2480:
.LBE2509:
.LBB2510:
.LBB2488:
.LBB2492:
.LBB2494:
.LBB2495:
	.loc 17 78 0
	movl	$_ZL22__gthrw_pthread_cancelm, %edx
	testl	%edx, %edx
	je	.L516
.LBB2496:
.LBB2497:
	.loc 17 46 0
	orl	$-1, %edx
	lock xaddl	%edx, 8(%eax)
.LVL443:
.L517:
.LBE2497:
.LBE2496:
.LBE2495:
.LBE2494:
	.loc 16 229 0
	testl	%edx, %edx
	jg	.L515
	.loc 16 231 0
	leal	-9(%ebp), %edx
.LVL444:
	pushl	%ecx
	pushl	%ecx
	pushl	%edx
	pushl	%eax
	.cfi_escape 0x2e,0x10
	call	_ZNSs4_Rep10_M_destroyERKSaIcE
	addl	$16, %esp
	jmp	.L515
.L525:
.L514:
.L526:
.L518:
.LBE2492:
.LBE2488:
.LBE2510:
	.loc 3 88 0
	subl	$12, %esp
	leal	92(%ebx), %edx
	movl	%eax, -28(%ebp)
	pushl	%edx
	call	_ZNSsD1Ev
	leal	56(%ebx), %edx
	movl	%edx, (%esp)
	call	_ZN16TimeoutSemaphoreD1Ev
	addl	$16, %esp
	movl	-28(%ebp), %eax
.L522:
	subl	$12, %esp
	leal	20(%ebx), %edx
	movl	%eax, -28(%ebp)
	pushl	%edx
	call	_ZN16TimeoutSemaphoreD1Ev
	addl	$16, %esp
	movl	-28(%ebp), %eax
.L523:
.LBB2511:
.LBB2512:
	.loc 3 34 0
	subl	$12, %esp
	movl	$_ZTV19BaseConcurrentQueueIjE+8, (%ebx)
	pushl	%eax
.LEHB46:
	call	_Unwind_Resume
.LEHE46:
.L516:
.LBE2512:
.LBE2511:
.LBB2513:
.LBB2503:
.LBB2502:
.LBB2501:
.LBB2500:
.LBB2498:
.LBB2499:
	.loc 17 64 0
	movl	8(%eax), %edx
.LVL445:
	.loc 17 65 0
	leal	-1(%edx), %ecx
	movl	%ecx, 8(%eax)
	jmp	.L517
.LVL446:
.L527:
	jmp	.L522
.L528:
	jmp	.L523
.LBE2499:
.LBE2498:
.LBE2500:
.LBE2501:
.LBE2502:
.LBE2503:
.LBE2513:
.LBE2514:
	.cfi_endproc
.LFE1467:
	.size	_ZN15ConcurrentQueueIjED1Ev, .-_ZN15ConcurrentQueueIjED1Ev
	.section	.gcc_except_table
.LLSDA1467:
	.byte	0xff
	.byte	0xff
	.byte	0x1
	.uleb128 .LLSDACSE1467-.LLSDACSB1467
.LLSDACSB1467:
	.uleb128 .LEHB43-.LFB1467
	.uleb128 .LEHE43-.LEHB43
	.uleb128 .L525-.LFB1467
	.uleb128 0x0
	.uleb128 .LEHB44-.LFB1467
	.uleb128 .LEHE44-.LEHB44
	.uleb128 .L527-.LFB1467
	.uleb128 0x0
	.uleb128 .LEHB45-.LFB1467
	.uleb128 .LEHE45-.LEHB45
	.uleb128 .L528-.LFB1467
	.uleb128 0x0
	.uleb128 .LEHB46-.LFB1467
	.uleb128 .LEHE46-.LEHB46
	.uleb128 0x0
	.uleb128 0x0
.LLSDACSE1467:
	.section	.text._ZN15ConcurrentQueueIjED1Ev,"axG",@progbits,_ZN15ConcurrentQueueIjED1Ev,comdat
	.section	.text._ZN15ConcurrentQueueIjE3popEPj,"axG",@progbits,_ZN15ConcurrentQueueIjE3popEPj,comdat
	.align 2
	.p2align 4,,15
	.weak	_ZN15ConcurrentQueueIjE3popEPj
	.type	_ZN15ConcurrentQueueIjE3popEPj, @function
_ZN15ConcurrentQueueIjE3popEPj:
.LFB1470:
	.loc 3 124 0
	.cfi_startproc
	.cfi_personality 0x0,__gxx_personality_v0
.LVL447:
	pushl	%ebp
.LCFI124:
	.cfi_def_cfa_offset 8
	movl	%esp, %ebp
	.cfi_offset 5, -8
.LCFI125:
	.cfi_def_cfa_register 5
	pushl	%edi
	pushl	%esi
	pushl	%ebx
	subl	$44, %esp
	.loc 3 124 0
	movl	8(%ebp), %esi
	.cfi_offset 3, -20
	.cfi_offset 6, -16
	.cfi_offset 7, -12
.LBB2526:
	.loc 3 130 0
	leal	20(%esi), %ebx
.LBB2534:
.LBB2535:
.LBB2536:
	.loc 6 73 0
	cmpb	$0, 28(%esi)
	jne	.L533
.LVL448:
	.loc 3 124 0
	call	__errno_location
.LBB2539:
	.loc 6 123 0
	movl	%esi, -44(%ebp)
.LBE2539:
	.loc 3 124 0
	movl	%eax, %edi
	.loc 6 94 0
	leal	32(%esi), %eax
.LBB2538:
	.loc 6 123 0
	movl	%eax, %esi
.LVL449:
	jmp	.L539
.LVL450:
	.p2align 4,,7
	.p2align 3
.L550:
.LBE2538:
	.loc 6 95 0
	movl	(%edi), %edx
	cmpl	$110, %edx
	je	.L535
	.loc 6 96 0
	cmpl	$22, %edx
	je	.L548
.L536:
	.loc 6 129 0
	cmpb	$0, 8(%ebx)
	jne	.L533
.L551:
	.loc 6 93 0
	testl	%eax, %eax
	je	.L549
.L539:
.LVL451:
	.loc 6 94 0
	pushl	%eax
	pushl	%eax
	pushl	%esi
	movl	4(%ebx), %ecx
	pushl	%ecx
	.cfi_escape 0x2e,0x10
	call	sem_timedwait
	.loc 6 95 0
	addl	$16, %esp
	testl	%eax, %eax
.LVL452:
	jne	.L550
	.loc 6 120 0
	cmpl	$110, (%edi)
	jne	.L536
	.p2align 4,,7
	.p2align 3
.L535:
.LBB2537:
	.loc 6 123 0
	pushl	%edx
	pushl	%edx
	leal	-32(%ebp), %edx
	pushl	$100
	pushl	%edx
	movl	%eax, -48(%ebp)
.LVL453:
	call	_Z12addToCurTimeP8timespecl
	.loc 6 125 0
	movl	-32(%ebp), %edx
	movl	-28(%ebp), %ecx
	addl	$16, %esp
	movl	%edx, 12(%ebx)
	movl	%ecx, 16(%ebx)
	movl	-48(%ebp), %eax
.LBE2537:
	.loc 6 129 0
	cmpb	$0, 8(%ebx)
	je	.L551
.LVL454:
	.p2align 4,,7
	.p2align 3
.L533:
.LBE2536:
.LBE2535:
.LBE2534:
.LBB2528:
.LBB2531:
	.loc 6 191 0
	xorl	%eax, %eax
.LVL455:
.L538:
.LBE2531:
.LBE2528:
.LBE2526:
	.loc 3 145 0
	leal	-12(%ebp), %esp
	popl	%ebx
	popl	%esi
	popl	%edi
	popl	%ebp
	ret
.LVL456:
	.p2align 4,,7
	.p2align 3
.L549:
	movl	-44(%ebp), %esi
.LVL457:
.LBB2546:
	.loc 3 135 0
	movl	4(%esi), %eax
.LVL458:
	pushl	%ebx
	pushl	%ebx
	movl	(%eax), %edx
	movl	12(%ebp), %ecx
	pushl	%ecx
	pushl	%eax
	call	*12(%edx)
	addl	$16, %esp
	testb	%al, %al
	je	.L552
.LVL459:
.L543:
	.loc 3 137 0
	movl	12(%esi), %ecx
	.loc 3 138 0
	movl	96(%esi), %eax
.LBB2542:
.LBB2530:
	.loc 6 188 0
	subl	$12, %esp
.LBE2530:
.LBE2542:
	.loc 3 137 0
	incl	%ecx
	.loc 3 138 0
	decl	%eax
.LBB2543:
.LBB2532:
	.loc 6 188 0
	movl	60(%esi), %edx
.LBE2532:
.LBE2543:
	.loc 3 137 0
	movl	%ecx, 12(%esi)
	.loc 3 138 0
	movl	%eax, 96(%esi)
.LBB2544:
.LBB2529:
	.loc 6 188 0
	pushl	%edx
	call	sem_post
	movl	%eax, %edx
.LVL460:
	.loc 6 190 0
	addl	$16, %esp
	movb	$1, %al
	testl	%edx, %edx
	je	.L538
	.loc 6 191 0
	pushl	%eax
	pushl	%eax
	movl	(%edi), %esi
.LVL461:
	pushl	%esi
	pushl	$.LC31
	pushl	$_ZZN16TimeoutSemaphore4postEvE8__func__
	pushl	$_ZZN16TimeoutSemaphore4postEvE19__PRETTY_FUNCTION__
	pushl	$.LC4
	pushl	$191
	.cfi_escape 0x2e,0x20
	call	vermont_exception
.LVL462:
	addl	$32, %esp
.LBE2529:
.LBE2544:
.LBE2546:
	.loc 3 145 0
	leal	-12(%ebp), %esp
.LBB2547:
.LBB2527:
.LBB2533:
	.loc 6 191 0
	movb	$1, %al
.LBE2533:
.LBE2527:
.LBE2547:
	.loc 3 145 0
	popl	%ebx
	popl	%esi
	popl	%edi
	popl	%ebp
	ret
.LVL463:
	.p2align 4,,7
	.p2align 3
.L552:
.LBB2548:
	.loc 3 136 0
	subl	$12, %esp
	pushl	$.LC30
	pushl	$_ZZN15ConcurrentQueueIjE3popEPjE8__func__
	pushl	$_ZZN15ConcurrentQueueIjE3popEPjE19__PRETTY_FUNCTION__
	pushl	$.LC12
	pushl	$136
	call	vermont_exception
	addl	$32, %esp
	jmp	.L543
.LVL464:
	.p2align 4,,7
	.p2align 3
.L548:
.LBB2545:
.LBB2541:
.LBB2540:
	.loc 6 112 0
	subl	$12, %esp
	pushl	$.LC29
	pushl	$_ZZN16TimeoutSemaphore4waitElE8__func__
	pushl	$_ZZN16TimeoutSemaphore4waitElE19__PRETTY_FUNCTION__
	pushl	$.LC4
	pushl	$112
	call	vermont_exception
.LVL465:
	xorl	%eax, %eax
	addl	$32, %esp
	jmp	.L538
.LBE2540:
.LBE2541:
.LBE2545:
.LBE2548:
	.cfi_endproc
.LFE1470:
	.size	_ZN15ConcurrentQueueIjE3popEPj, .-_ZN15ConcurrentQueueIjE3popEPj
	.section	.rodata.str1.1
.LC32:
	.string	"Could not push element"
	.section	.text._ZN15ConcurrentQueueIjE4pushEj,"axG",@progbits,_ZN15ConcurrentQueueIjE4pushEj,comdat
	.align 2
	.p2align 4,,15
	.weak	_ZN15ConcurrentQueueIjE4pushEj
	.type	_ZN15ConcurrentQueueIjE4pushEj, @function
_ZN15ConcurrentQueueIjE4pushEj:
.LFB1469:
	.loc 3 97 0
	.cfi_startproc
	.cfi_personality 0x0,__gxx_personality_v0
.LVL466:
	pushl	%ebp
.LCFI126:
	.cfi_def_cfa_offset 8
	movl	%esp, %ebp
	.cfi_offset 5, -8
.LCFI127:
	.cfi_def_cfa_register 5
	pushl	%edi
	pushl	%esi
	pushl	%ebx
	subl	$44, %esp
	.loc 3 97 0
	movl	8(%ebp), %esi
	.cfi_offset 3, -20
	.cfi_offset 6, -16
	.cfi_offset 7, -12
.LBB2560:
	.loc 3 107 0
	leal	56(%esi), %ebx
.LBB2565:
.LBB2566:
.LBB2567:
	.loc 6 73 0
	cmpb	$0, 64(%esi)
	jne	.L563
.LVL467:
	.loc 3 97 0
	call	__errno_location
.LBB2570:
	.loc 6 123 0
	movl	%esi, -44(%ebp)
.LBE2570:
	.loc 3 97 0
	movl	%eax, %edi
	.loc 6 94 0
	leal	68(%esi), %eax
.LBB2569:
	.loc 6 123 0
	movl	%eax, %esi
.LVL468:
	jmp	.L559
.LVL469:
	.p2align 4,,7
	.p2align 3
.L569:
.LBE2569:
	.loc 6 95 0
	movl	(%edi), %edx
	cmpl	$110, %edx
	je	.L556
	.loc 6 96 0
	cmpl	$22, %edx
	je	.L567
.L557:
	.loc 6 129 0
	cmpb	$0, 8(%ebx)
	jne	.L563
.L570:
	.loc 6 93 0
	testl	%eax, %eax
	je	.L568
.L559:
.LVL470:
	.loc 6 94 0
	pushl	%eax
	pushl	%eax
	pushl	%esi
	movl	4(%ebx), %ecx
	pushl	%ecx
	.cfi_escape 0x2e,0x10
	call	sem_timedwait
	.loc 6 95 0
	addl	$16, %esp
	testl	%eax, %eax
.LVL471:
	jne	.L569
	.loc 6 120 0
	cmpl	$110, (%edi)
	jne	.L557
	.p2align 4,,7
	.p2align 3
.L556:
.LBB2568:
	.loc 6 123 0
	pushl	%edx
	pushl	%edx
	leal	-32(%ebp), %edx
	pushl	$100
	pushl	%edx
	movl	%eax, -48(%ebp)
.LVL472:
	call	_Z12addToCurTimeP8timespecl
	.loc 6 125 0
	movl	-32(%ebp), %edx
	movl	-28(%ebp), %ecx
	addl	$16, %esp
	movl	%edx, 12(%ebx)
	movl	%ecx, 16(%ebx)
	movl	-48(%ebp), %eax
.LBE2568:
	.loc 6 129 0
	cmpb	$0, 8(%ebx)
	je	.L570
.LVL473:
	.p2align 4,,7
	.p2align 3
.L563:
.LBE2567:
.LBE2566:
.LBE2565:
.LBE2560:
	.loc 3 122 0
	leal	-12(%ebp), %esp
	popl	%ebx
	popl	%esi
	popl	%edi
	popl	%ebp
	ret
.LVL474:
	.p2align 4,,7
	.p2align 3
.L568:
	movl	-44(%ebp), %esi
.LVL475:
.LBB2574:
	.loc 3 115 0
	movl	4(%esi), %eax
.LVL476:
	pushl	%ebx
	pushl	%ebx
	movl	(%eax), %edx
	movl	12(%ebp), %ecx
	pushl	%ecx
	pushl	%eax
	call	*8(%edx)
	addl	$16, %esp
	testb	%al, %al
	je	.L571
.LVL477:
.L562:
	.loc 3 117 0
	movl	8(%esi), %ecx
	.loc 3 118 0
	movl	96(%esi), %eax
.LBB2562:
.LBB2563:
	.loc 6 188 0
	subl	$12, %esp
.LBE2563:
.LBE2562:
	.loc 3 117 0
	incl	%ecx
	.loc 3 118 0
	incl	%eax
	.loc 3 117 0
	movl	%ecx, 8(%esi)
	.loc 3 118 0
	movl	%eax, 96(%esi)
.LBB2561:
.LBB2564:
	.loc 6 188 0
	movl	24(%esi), %edx
	pushl	%edx
	call	sem_post
	.loc 6 190 0
	addl	$16, %esp
	testl	%eax, %eax
.LVL478:
	je	.L563
.LVL479:
	.loc 6 191 0
	pushl	%eax
	pushl	%eax
	movl	(%edi), %esi
.LVL480:
	pushl	%esi
	pushl	$.LC31
	pushl	$_ZZN16TimeoutSemaphore4postEvE8__func__
	pushl	$_ZZN16TimeoutSemaphore4postEvE19__PRETTY_FUNCTION__
	pushl	$.LC4
	pushl	$191
	.cfi_escape 0x2e,0x20
	call	vermont_exception
	addl	$32, %esp
.LBE2564:
.LBE2561:
.LBE2574:
	.loc 3 122 0
	leal	-12(%ebp), %esp
	popl	%ebx
	popl	%esi
	popl	%edi
	popl	%ebp
	ret
.LVL481:
	.p2align 4,,7
	.p2align 3
.L571:
.LBB2575:
	.loc 3 116 0
	subl	$12, %esp
	pushl	$.LC32
	pushl	$_ZZN15ConcurrentQueueIjE4pushEjE8__func__
	pushl	$_ZZN15ConcurrentQueueIjE4pushEjE19__PRETTY_FUNCTION__
	pushl	$.LC12
	pushl	$116
	call	vermont_exception
	addl	$32, %esp
	jmp	.L562
.LVL482:
	.p2align 4,,7
	.p2align 3
.L567:
.LBB2573:
.LBB2572:
.LBB2571:
	.loc 6 112 0
	subl	$12, %esp
	pushl	$.LC29
	pushl	$_ZZN16TimeoutSemaphore4waitElE8__func__
	pushl	$_ZZN16TimeoutSemaphore4waitElE19__PRETTY_FUNCTION__
	pushl	$.LC4
	pushl	$112
	call	vermont_exception
.LVL483:
	addl	$32, %esp
	jmp	.L563
.LBE2571:
.LBE2572:
.LBE2573:
.LBE2575:
	.cfi_endproc
.LFE1469:
	.size	_ZN15ConcurrentQueueIjE4pushEj, .-_ZN15ConcurrentQueueIjE4pushEj
	.section	.rodata.str1.1
.LC33:
	.string	"wrong ConcurrentQueue"
	.section	.rodata.str1.4
	.align 4
.LC34:
	.string	"Queue can only handle 1 producer"
	.section	.rodata.str1.1
.LC35:
	.string	"wrong QueueType"
	.text
	.align 2
	.p2align 4,,15
.globl _ZN9QueueTestC2Ejjj
	.type	_ZN9QueueTestC2Ejjj, @function
_ZN9QueueTestC2Ejjj:
.LFB1204:
	.loc 1 6 0
	.cfi_startproc
	.cfi_personality 0x0,__gxx_personality_v0
	.cfi_lsda 0x0,.LLSDA1204
.LVL484:
	pushl	%ebp
.LCFI128:
	.cfi_def_cfa_offset 8
	movl	%esp, %ebp
	.cfi_offset 5, -8
.LCFI129:
	.cfi_def_cfa_register 5
	pushl	%edi
	pushl	%esi
	pushl	%ebx
	subl	$44, %esp
	.loc 1 6 0
	movl	8(%ebp), %ebx
	.cfi_offset 3, -20
	.cfi_offset 6, -16
	.cfi_offset 7, -12
	movl	16(%ebp), %esi
.LBB2626:
	.loc 1 9 0
	movl	20(%ebp), %eax
	.loc 1 11 0
	cmpl	$20, %esi
	.loc 1 9 0
	movl	%esi, (%ebx)
	movl	$0, 96(%ebx)
	movl	%eax, 4(%ebx)
	.loc 1 11 0
	ja	.L644
.LVL485:
.LBB2641:
	.loc 1 15 0
	testl	%esi, %esi
	je	.L575
.L574:
	xorl	%edi, %edi
.LVL486:
	.p2align 4,,7
	.p2align 3
.L576:
	.loc 1 16 0
	subl	$12, %esp
	pushl	$16
.LEHB47:
	.cfi_escape 0x2e,0x10
	call	_Znwj
	movl	%eax, 12(%ebx,%edi,4)
	.loc 1 15 0
	incl	%edi
.LVL487:
	addl	$16, %esp
.LBB2642:
.LBB2643:
	.loc 14 22 0
	movb	$0, (%eax)
	movb	$0, 8(%eax)
	movl	$_ZN9QueueTest8pushFuncEPv, 12(%eax)
.LBE2643:
.LBE2642:
	.loc 1 15 0
	cmpl	%edi, %esi
	ja	.L576
.L575:
.LBE2641:
	.loc 1 18 0
	subl	$12, %esp
	pushl	$16
	call	_Znwj
	.loc 1 21 0
	movl	$-858993459, %edx
	.loc 1 18 0
	movl	%eax, 92(%ebx)
.LBB2639:
.LBB2640:
	.loc 14 22 0
	movb	$0, (%eax)
	movb	$0, 8(%eax)
	movl	$_ZN9QueueTest7popFuncEPv, 12(%eax)
.LBE2640:
.LBE2639:
	.loc 1 21 0
	movl	12(%ebp), %eax
	mull	%edx
	shrl	$3, %edx
	addl	$16, %esp
	cmpl	$2, %edx
	je	.L579
.LVL488:
	cmpl	$3, %edx
	je	.L580
	decl	%edx
	je	.L645
	.loc 1 32 0
	subl	$12, %esp
	pushl	$.LC33
	pushl	$_ZZN9QueueTestC1EjjjE8__func__
	pushl	$_ZZN9QueueTestC1EjjjE19__PRETTY_FUNCTION__
	pushl	$.LC2
	pushl	$32
	.cfi_escape 0x2e,0x20
	call	vermont_exception
	addl	$32, %esp
.LVL489:
.L583:
	.loc 1 35 0
	movl	12(%ebp), %eax
	movl	$-858993459, %edx
	mull	%edx
	shrl	$3, %edx
	leal	(%edx,%edx,4), %eax
	movl	12(%ebp), %edx
	addl	%eax, %eax
	subl	%eax, %edx
	cmpl	$5, %edx
	jbe	.L646
.L594:
	.loc 1 61 0
	subl	$12, %esp
	pushl	$.LC35
	pushl	$_ZZN9QueueTestC1EjjjE8__func__
	pushl	$_ZZN9QueueTestC1EjjjE19__PRETTY_FUNCTION__
	pushl	$.LC2
	pushl	$61
	call	vermont_exception
	addl	$32, %esp
.L619:
.LBE2626:
	.loc 1 64 0
	leal	-12(%ebp), %esp
	popl	%ebx
.LVL490:
	popl	%esi
.LVL491:
	popl	%edi
.LVL492:
	popl	%ebp
	ret
.LVL493:
.L645:
.LBB2682:
	.loc 1 23 0
	subl	$12, %esp
	pushl	$100
	.cfi_escape 0x2e,0x10
	call	_Znwj
.LEHE47:
	addl	$16, %esp
	movl	20(%ebp), %edx
	movl	%eax, %edi
.LVL494:
.LEHB48:
	.cfi_escape 0x2e,0x0
	call	T.635
.LEHE48:
.LVL495:
.L640:
	.loc 1 29 0
	movl	%edi, 96(%ebx)
	.loc 1 30 0
	jmp	.L583
.LVL496:
	.p2align 4,,7
	.p2align 3
.L646:
	.loc 1 35 0
	jmp	*.L600(,%edx,4)
	.section	.rodata
	.align 4
	.align 4
.L600:
	.long	.L594
	.long	.L619
	.long	.L596
	.long	.L597
	.long	.L598
	.long	.L599
	.text
.LVL497:
	.p2align 4,,7
	.p2align 3
.L644:
	.loc 1 12 0
	subl	$12, %esp
	pushl	$.LC23
	pushl	$_ZZN9QueueTestC1EjjjE8__func__
	pushl	$_ZZN9QueueTestC1EjjjE19__PRETTY_FUNCTION__
	pushl	$.LC2
	pushl	$12
.LEHB49:
	.cfi_escape 0x2e,0x20
	call	vermont_exception
	addl	$32, %esp
	jmp	.L574
.LVL498:
	.p2align 4,,7
	.p2align 3
.L580:
	.loc 1 29 0
	subl	$12, %esp
	pushl	$32
	.cfi_escape 0x2e,0x10
	call	_Znwj
.LEHE49:
.LBB2644:
.LBB2647:
.LBB2650:
.LBB2657:
	.loc 3 503 0
	movl	20(%ebp), %edx
.LBE2657:
.LBE2650:
.LBE2647:
.LBE2644:
	.loc 1 29 0
	movl	%eax, %edi
.LVL499:
.LBB2664:
.LBB2646:
.LBB2649:
	.loc 3 502 0
	movl	$_ZTV23ConcurrentQueueSpinlockIjE+8, (%eax)
.LBB2654:
.LBB2655:
.LBB2656:
	.loc 16 255 0
	movl	$_ZNSs4_Rep20_S_empty_rep_storageE+12, 28(%eax)
.LBE2656:
.LBE2655:
.LBE2654:
.LBB2653:
	.loc 3 503 0
	movl	%edx, 24(%eax)
	.loc 3 507 0
	movl	$72, (%esp)
.LEHB50:
	call	_Znwj
.LEHE50:
	movl	%eax, -44(%ebp)
	movl	%eax, (%esp)
.LEHB51:
	call	_ZN8STLQueueIjEC1Ev
.LEHE51:
	movl	-44(%ebp), %eax
	addl	$16, %esp
	movl	%eax, 4(%edi)
.LEHB52:
	.loc 3 527 0
	.cfi_escape 0x2e,0x0
	call	_Z16getCachelineSizev
	movl	%eax, -44(%ebp)
	.loc 3 528 0
	cmpl	$11, %eax
	ja	.L588
	.loc 3 529 0
	subl	$12, %esp
	pushl	$.LC26
	pushl	$_ZZN23ConcurrentQueueSpinlockIjEC1EiijE8__func__
	pushl	$_ZZN23ConcurrentQueueSpinlockIjEC1EiijE19__PRETTY_FUNCTION__
	pushl	$.LC12
	pushl	$529
	.cfi_escape 0x2e,0x20
	call	vermont_exception
	addl	$32, %esp
.L588:
	.loc 3 532 0
	pushl	%ecx
	movl	-44(%ebp), %edx
	pushl	%edx
	leal	-28(%ebp), %edx
	movl	-44(%ebp), %eax
	pushl	%eax
	pushl	%edx
	.cfi_escape 0x2e,0x10
	call	posix_memalign
	addl	$16, %esp
	testl	%eax, %eax
	je	.L589
	.loc 3 533 0
	subl	$12, %esp
	pushl	$.LC21
	pushl	$_ZZN23ConcurrentQueueSpinlockIjEC1EiijE8__func__
	pushl	$_ZZN23ConcurrentQueueSpinlockIjEC1EiijE19__PRETTY_FUNCTION__
	pushl	$.LC12
	pushl	$533
	.cfi_escape 0x2e,0x20
	call	vermont_exception
.LEHE52:
	addl	$32, %esp
.L589:
	.loc 3 534 0
	movl	-28(%ebp), %edx
.LVL500:
	movl	%edx, 8(%edi)
	.loc 3 535 0
	leal	4(%edx), %eax
	.loc 3 536 0
	movl	$0, (%edx)
	.loc 3 535 0
	movl	%eax, 12(%edi)
	.loc 3 537 0
	movl	$0, 4(%edx)
	.loc 3 538 0
	movl	$100, 4(%eax)
	.loc 3 541 0
	pushl	%ecx
	movl	-44(%ebp), %edx
	pushl	%edx
	movl	-44(%ebp), %eax
	pushl	%eax
	leal	-28(%ebp), %eax
	pushl	%eax
	.cfi_escape 0x2e,0x10
	call	posix_memalign
	addl	$16, %esp
	testl	%eax, %eax
	jne	.L647
.L590:
	.loc 3 543 0
	movl	-28(%ebp), %eax
	movl	%eax, 16(%edi)
	.loc 3 544 0
	leal	4(%eax), %edx
	.loc 3 545 0
	movl	$0, (%eax)
	.loc 3 544 0
	movl	%edx, 20(%edi)
	.loc 3 546 0
	movl	$0, 4(%eax)
	.loc 3 547 0
	movl	$100, 4(%edx)
	jmp	.L640
.L582:
.LVL501:
	.p2align 4,,7
	.p2align 3
.L579:
.LBE2653:
.LBE2649:
.LBE2646:
.LBE2664:
	.loc 1 26 0
	subl	$12, %esp
	pushl	$48
.LEHB53:
	call	_Znwj
.LEHE53:
	addl	$16, %esp
	movl	20(%ebp), %edx
	movl	%eax, %edi
.LVL502:
.LEHB54:
	.cfi_escape 0x2e,0x0
	call	T.636
.LEHE54:
	jmp	.L640
.LVL503:
.L647:
.LBB2665:
.LBB2662:
.LBB2660:
.LBB2658:
	.loc 3 542 0
	subl	$12, %esp
	pushl	$.LC21
	pushl	$_ZZN23ConcurrentQueueSpinlockIjEC1EiijE8__func__
	pushl	$_ZZN23ConcurrentQueueSpinlockIjEC1EiijE19__PRETTY_FUNCTION__
	pushl	$.LC12
	pushl	$542
.LEHB55:
	.cfi_escape 0x2e,0x20
	call	vermont_exception
.LEHE55:
	addl	$32, %esp
	jmp	.L590
.LVL504:
.L596:
.LBE2658:
.LBE2660:
.LBE2662:
.LBE2665:
	.loc 1 39 0
	decl	%esi
.LVL505:
	je	.L601
	.loc 1 40 0
	subl	$12, %esp
	pushl	$.LC34
	pushl	$_ZZN9QueueTestC1EjjjE8__func__
	pushl	$_ZZN9QueueTestC1EjjjE19__PRETTY_FUNCTION__
	pushl	$.LC2
	pushl	$40
.LEHB56:
	call	vermont_exception
	addl	$32, %esp
.L601:
	.loc 1 41 0
	movl	96(%ebx), %edi
.LVL506:
	movl	4(%edi), %eax
	testl	%eax, %eax
	je	.L602
	subl	$12, %esp
	movl	(%eax), %edx
	pushl	%eax
	.cfi_escape 0x2e,0x10
	call	*4(%edx)
	movl	96(%ebx), %edi
	addl	$16, %esp
.L602:
	.loc 1 42 0
	subl	$12, %esp
	pushl	$36
	call	_Znwj
.LEHE56:
.LBB2666:
.LBB2668:
.LBB2670:
	.loc 5 29 0
	addl	$16, %esp
.LBE2670:
.LBE2668:
.LBE2666:
	.loc 1 42 0
	movl	%eax, %ebx
.LVL507:
.LBB2673:
.LBB2667:
	.loc 5 28 0
	movl	$_ZTV27LockfreeSingleQueueCacheOptIjE+8, (%eax)
.LEHB57:
.LBB2669:
	.loc 5 29 0
	.cfi_escape 0x2e,0x0
	call	_Z16getCachelineSizev
	movl	%eax, %esi
.LVL508:
	.loc 5 33 0
	leal	0(,%eax,4), %eax
	pushl	%ecx
	pushl	%eax
	leal	-28(%ebp), %eax
	pushl	%esi
	pushl	%eax
	.cfi_escape 0x2e,0x10
	call	posix_memalign
	addl	$16, %esp
	testl	%eax, %eax
	je	.L603
	.loc 5 34 0
	subl	$12, %esp
	pushl	$.LC21
	pushl	$_ZZN27LockfreeSingleQueueCacheOptIjEC1EiE8__func__
	pushl	$_ZZN27LockfreeSingleQueueCacheOptIjEC1EiE19__PRETTY_FUNCTION__
	pushl	$.LC22
	pushl	$34
	.cfi_escape 0x2e,0x20
	call	vermont_exception
	addl	$32, %esp
.L603:
	.loc 5 37 0
	movl	-28(%ebp), %eax
.LVL509:
	.loc 5 47 0
	movl	-28(%ebp), %ecx
	.loc 5 42 0
	shrl	$2, %esi
.LVL510:
	.loc 5 37 0
	movl	%eax, 4(%ebx)
	.loc 5 38 0
	leal	4(%eax), %edx
	.loc 5 39 0
	movl	$0, (%eax)
	movl	$0, 4(%eax)
	.loc 5 38 0
	movl	%edx, 8(%ebx)
	.loc 5 42 0
	leal	0(,%esi,4), %eax
	movl	-28(%ebp), %edx
	addl	%edx, %eax
	.loc 5 55 0
	subl	$12, %esp
	.loc 5 42 0
	movl	%eax, 12(%ebx)
	.loc 5 44 0
	movl	$0, (%eax)
	movl	$0, 4(%eax)
	.loc 5 43 0
	leal	4(%eax), %edx
	.loc 5 47 0
	leal	0(,%esi,8), %eax
	addl	%ecx, %eax
	.loc 5 43 0
	movl	%edx, 16(%ebx)
	.loc 5 47 0
	movl	%eax, 20(%ebx)
	.loc 5 48 0
	leal	4(%eax), %edx
	.loc 5 49 0
	movl	$0, (%eax)
	movl	$0, 4(%eax)
	.loc 5 48 0
	movl	%edx, 24(%ebx)
	.loc 5 52 0
	leal	(%esi,%esi,2), %eax
	movl	-28(%ebp), %edx
	leal	(%edx,%eax,4), %eax
	.loc 5 53 0
	movl	20(%ebp), %edx
	incl	%edx
	.loc 5 52 0
	movl	%eax, 28(%ebx)
	.loc 5 53 0
	movl	%edx, (%eax)
	.loc 5 55 0
	sall	$2, %edx
	pushl	%edx
	.cfi_escape 0x2e,0x10
	call	_Znaj
.LEHE57:
	movl	%eax, 32(%ebx)
.LBE2669:
.LBE2667:
.LBE2673:
	.loc 1 42 0
	movl	%ebx, 4(%edi)
.LBB2674:
.LBB2672:
.LBB2671:
	.loc 5 55 0
	addl	$16, %esp
.LBE2671:
.LBE2672:
.LBE2674:
.LBE2682:
	.loc 1 64 0
	leal	-12(%ebp), %esp
	popl	%ebx
	popl	%esi
	popl	%edi
	popl	%ebp
	ret
.L612:
.L628:
.L613:
.LVL511:
.L599:
.LBB2683:
	.loc 1 57 0
	movl	96(%ebx), %esi
.LVL512:
	movl	4(%esi), %eax
	testl	%eax, %eax
	je	.L614
	subl	$12, %esp
	movl	(%eax), %edx
	pushl	%eax
.LEHB58:
	call	*4(%edx)
	movl	96(%ebx), %esi
	addl	$16, %esp
.L614:
	.loc 1 58 0
	subl	$12, %esp
	pushl	$28
	call	_Znwj
.LEHE58:
	movl	%eax, %ebx
.LVL513:
.LBB2631:
.LBB2632:
	.loc 4 32 0
	movl	$0, 4(%eax)
	movl	$_ZTV18LockfreeMultiQueueIjE+8, (%eax)
	movl	$0, 8(%eax)
	movl	$0, 12(%eax)
	movl	$0, 16(%eax)
	movl	20(%ebp), %eax
	incl	%eax
	movl	%eax, 20(%ebx)
.LBB2633:
	.loc 4 37 0
	sall	$3, %eax
	movl	%eax, (%esp)
.LEHB59:
	call	_Znaj
.LEHE59:
.LBB2634:
	.loc 4 38 0
	movl	20(%ebx), %edi
.LVL514:
.LBE2634:
	.loc 4 37 0
	addl	$16, %esp
	movl	%eax, 24(%ebx)
.LBB2635:
	.loc 4 38 0
	testl	%edi, %edi
	je	.L615
	xorl	%ecx, %ecx
	xorl	%edx, %edx
.LVL515:
	jmp	.L616
	.p2align 4,,7
	.p2align 3
.L648:
	movl	24(%ebx), %eax
.L616:
	incl	%edx
	.loc 4 39 0
	movl	$0, (%eax,%ecx,8)
	movl	$0, 4(%eax,%ecx,8)
	.loc 4 38 0
	cmpl	%edx, %edi
	movl	%edx, %ecx
	ja	.L648
.L615:
.LBE2635:
.LBE2633:
.LBE2632:
.LBE2631:
	.loc 1 58 0
	movl	%ebx, 4(%esi)
.LBE2683:
	.loc 1 64 0
	leal	-12(%ebp), %esp
	popl	%ebx
	popl	%esi
	popl	%edi
	popl	%ebp
	ret
.L608:
.L629:
.L609:
.LVL516:
.L598:
.LBB2684:
	.loc 1 51 0
	decl	%esi
.LVL517:
	je	.L610
	.loc 1 52 0
	subl	$12, %esp
	pushl	$.LC34
	pushl	$_ZZN9QueueTestC1EjjjE8__func__
	pushl	$_ZZN9QueueTestC1EjjjE19__PRETTY_FUNCTION__
	pushl	$.LC2
	pushl	$52
.LEHB60:
	.cfi_escape 0x2e,0x20
	call	vermont_exception
	addl	$32, %esp
.L610:
	.loc 1 53 0
	movl	96(%ebx), %esi
	movl	4(%esi), %eax
	testl	%eax, %eax
	je	.L611
	subl	$12, %esp
	movl	(%eax), %edx
	pushl	%eax
	.cfi_escape 0x2e,0x10
	call	*4(%edx)
	movl	96(%ebx), %esi
	addl	$16, %esp
.L611:
	.loc 1 54 0
	subl	$12, %esp
	pushl	$324
	call	_Znwj
.LEHE60:
	movl	%eax, %ebx
.LVL518:
.LBB2675:
.LBB2676:
	.loc 5 214 0
	movl	$0, 68(%eax)
	movl	$_ZTV32LockfreeSingleQueueCacheOptLocalIjE+8, (%eax)
	movl	$0, 72(%eax)
	movl	$0, 132(%eax)
	movl	$0, 136(%eax)
	movl	$0, 196(%eax)
	movl	$0, 200(%eax)
	movl	20(%ebp), %eax
	incl	%eax
	movl	%eax, 260(%ebx)
	.loc 5 216 0
	sall	$2, %eax
	movl	%eax, (%esp)
.LEHB61:
	call	_Znaj
.LEHE61:
	movl	%eax, 264(%ebx)
.LBE2676:
.LBE2675:
	.loc 1 54 0
	movl	%ebx, 4(%esi)
.LBB2678:
.LBB2677:
	.loc 5 216 0
	addl	$16, %esp
.LBE2677:
.LBE2678:
.LBE2684:
	.loc 1 64 0
	leal	-12(%ebp), %esp
	popl	%ebx
	popl	%esi
	popl	%edi
.LVL519:
	popl	%ebp
	ret
.L604:
.L630:
.L605:
.LVL520:
.L597:
.LBB2685:
	.loc 1 45 0
	decl	%esi
.LVL521:
	je	.L606
	.loc 1 46 0
	subl	$12, %esp
	pushl	$.LC34
	pushl	$_ZZN9QueueTestC1EjjjE8__func__
	pushl	$_ZZN9QueueTestC1EjjjE19__PRETTY_FUNCTION__
	pushl	$.LC2
	pushl	$46
.LEHB62:
	.cfi_escape 0x2e,0x20
	call	vermont_exception
	addl	$32, %esp
.L606:
	.loc 1 47 0
	movl	96(%ebx), %esi
	movl	4(%esi), %eax
	testl	%eax, %eax
	je	.L607
	subl	$12, %esp
	movl	(%eax), %edx
	pushl	%eax
	.cfi_escape 0x2e,0x10
	call	*4(%edx)
	movl	96(%ebx), %esi
	addl	$16, %esp
.L607:
	.loc 1 48 0
	subl	$12, %esp
	pushl	$20
	call	_Znwj
.LEHE62:
	movl	%eax, %ebx
.LVL522:
.LBB2628:
.LBB2629:
	.loc 5 142 0
	movl	$_ZTV24LockfreeSingleQueueBasicIjE+8, (%eax)
	movl	20(%ebp), %eax
	incl	%eax
	movl	$0, 12(%ebx)
	movl	%eax, 4(%ebx)
	movl	$0, 16(%ebx)
	.loc 5 144 0
	sall	$2, %eax
	movl	%eax, (%esp)
.LEHB63:
	call	_Znaj
.LEHE63:
	movl	%eax, 8(%ebx)
.LBE2629:
.LBE2628:
	.loc 1 48 0
	movl	%ebx, 4(%esi)
.LBB2627:
.LBB2630:
	.loc 5 144 0
	addl	$16, %esp
.LBE2630:
.LBE2627:
.LBE2685:
	.loc 1 64 0
	leal	-12(%ebp), %esp
	popl	%ebx
	popl	%esi
	popl	%edi
.LVL523:
	popl	%ebp
	ret
.LVL524:
.L623:
.LVL525:
.L643:
.L617:
.L627:
.L618:
.LBB2686:
	.loc 1 58 0
	subl	$12, %esp
.LBB2679:
.LBB2638:
.LBB2636:
.LBB2637:
	.loc 2 23 0
	movl	$_ZTV9BaseQueueIjE+8, (%ebx)
	movl	%eax, %esi
.LVL526:
.LBE2637:
.LBE2636:
.LBE2638:
.LBE2679:
	.loc 1 58 0
	pushl	%ebx
.LVL527:
.L642:
	.loc 1 26 0
	call	_ZdlPv
	movl	%esi, (%esp)
.LEHB64:
	call	_Unwind_Resume
.LEHE64:
.LVL528:
.L625:
	movl	%eax, %esi
.LVL529:
.L591:
.L626:
.L592:
.L631:
.L593:
.LBB2680:
.LBB2645:
.LBB2648:
	.loc 3 547 0
	subl	$12, %esp
	leal	28(%edi), %eax
	pushl	%eax
	call	_ZNSsD1Ev
.LBB2651:
.LBB2652:
	.loc 3 34 0
	movl	$_ZTV19BaseConcurrentQueueIjE+8, (%edi)
.LBE2652:
.LBE2651:
.LBE2648:
.LBE2645:
.LBE2680:
	.loc 1 29 0
	movl	%edi, (%esp)
	jmp	.L642
.LVL530:
.L633:
.L641:
.L585:
	.loc 1 26 0
	subl	$12, %esp
	movl	%eax, %esi
.LVL531:
	pushl	%edi
	jmp	.L642
.LVL532:
.L632:
	jmp	.L641
.L624:
.L587:
.LBB2681:
.LBB2663:
.LBB2661:
.LBB2659:
	.loc 3 507 0
	subl	$12, %esp
	movl	%eax, %esi
.LVL533:
	pushl	-44(%ebp)
	call	_ZdlPv
	addl	$16, %esp
	jmp	.L591
.LVL534:
.L622:
	jmp	.L643
.L621:
	jmp	.L643
.LVL535:
.L620:
	jmp	.L643
.LBE2659:
.LBE2661:
.LBE2663:
.LBE2681:
.LBE2686:
	.cfi_endproc
.LFE1204:
	.size	_ZN9QueueTestC2Ejjj, .-_ZN9QueueTestC2Ejjj
	.section	.gcc_except_table
.LLSDA1204:
	.byte	0xff
	.byte	0xff
	.byte	0x1
	.uleb128 .LLSDACSE1204-.LLSDACSB1204
.LLSDACSB1204:
	.uleb128 .LEHB47-.LFB1204
	.uleb128 .LEHE47-.LEHB47
	.uleb128 0x0
	.uleb128 0x0
	.uleb128 .LEHB48-.LFB1204
	.uleb128 .LEHE48-.LEHB48
	.uleb128 .L633-.LFB1204
	.uleb128 0x0
	.uleb128 .LEHB49-.LFB1204
	.uleb128 .LEHE49-.LEHB49
	.uleb128 0x0
	.uleb128 0x0
	.uleb128 .LEHB50-.LFB1204
	.uleb128 .LEHE50-.LEHB50
	.uleb128 .L625-.LFB1204
	.uleb128 0x0
	.uleb128 .LEHB51-.LFB1204
	.uleb128 .LEHE51-.LEHB51
	.uleb128 .L624-.LFB1204
	.uleb128 0x0
	.uleb128 .LEHB52-.LFB1204
	.uleb128 .LEHE52-.LEHB52
	.uleb128 .L625-.LFB1204
	.uleb128 0x0
	.uleb128 .LEHB53-.LFB1204
	.uleb128 .LEHE53-.LEHB53
	.uleb128 0x0
	.uleb128 0x0
	.uleb128 .LEHB54-.LFB1204
	.uleb128 .LEHE54-.LEHB54
	.uleb128 .L632-.LFB1204
	.uleb128 0x0
	.uleb128 .LEHB55-.LFB1204
	.uleb128 .LEHE55-.LEHB55
	.uleb128 .L625-.LFB1204
	.uleb128 0x0
	.uleb128 .LEHB56-.LFB1204
	.uleb128 .LEHE56-.LEHB56
	.uleb128 0x0
	.uleb128 0x0
	.uleb128 .LEHB57-.LFB1204
	.uleb128 .LEHE57-.LEHB57
	.uleb128 .L623-.LFB1204
	.uleb128 0x0
	.uleb128 .LEHB58-.LFB1204
	.uleb128 .LEHE58-.LEHB58
	.uleb128 0x0
	.uleb128 0x0
	.uleb128 .LEHB59-.LFB1204
	.uleb128 .LEHE59-.LEHB59
	.uleb128 .L620-.LFB1204
	.uleb128 0x0
	.uleb128 .LEHB60-.LFB1204
	.uleb128 .LEHE60-.LEHB60
	.uleb128 0x0
	.uleb128 0x0
	.uleb128 .LEHB61-.LFB1204
	.uleb128 .LEHE61-.LEHB61
	.uleb128 .L621-.LFB1204
	.uleb128 0x0
	.uleb128 .LEHB62-.LFB1204
	.uleb128 .LEHE62-.LEHB62
	.uleb128 0x0
	.uleb128 0x0
	.uleb128 .LEHB63-.LFB1204
	.uleb128 .LEHE63-.LEHB63
	.uleb128 .L622-.LFB1204
	.uleb128 0x0
	.uleb128 .LEHB64-.LFB1204
	.uleb128 .LEHE64-.LEHB64
	.uleb128 0x0
	.uleb128 0x0
.LLSDACSE1204:
	.text
	.align 2
	.p2align 4,,15
.globl _ZN9QueueTestC1Ejjj
	.type	_ZN9QueueTestC1Ejjj, @function
_ZN9QueueTestC1Ejjj:
.LFB1205:
	.loc 1 6 0
	.cfi_startproc
	.cfi_personality 0x0,__gxx_personality_v0
	.cfi_lsda 0x0,.LLSDA1205
.LVL536:
	pushl	%ebp
.LCFI130:
	.cfi_def_cfa_offset 8
	movl	%esp, %ebp
	.cfi_offset 5, -8
.LCFI131:
	.cfi_def_cfa_register 5
	pushl	%edi
	pushl	%esi
	pushl	%ebx
	subl	$44, %esp
	.loc 1 6 0
	movl	8(%ebp), %ebx
	.cfi_offset 3, -20
	.cfi_offset 6, -16
	.cfi_offset 7, -12
	movl	16(%ebp), %esi
.LBB2737:
	.loc 1 9 0
	movl	20(%ebp), %eax
	.loc 1 11 0
	cmpl	$20, %esi
	.loc 1 9 0
	movl	%esi, (%ebx)
	movl	$0, 96(%ebx)
	movl	%eax, 4(%ebx)
	.loc 1 11 0
	ja	.L721
.LVL537:
.LBB2752:
	.loc 1 15 0
	testl	%esi, %esi
	je	.L652
.L651:
	xorl	%edi, %edi
.LVL538:
	.p2align 4,,7
	.p2align 3
.L653:
	.loc 1 16 0
	subl	$12, %esp
	pushl	$16
.LEHB65:
	.cfi_escape 0x2e,0x10
	call	_Znwj
	movl	%eax, 12(%ebx,%edi,4)
	.loc 1 15 0
	incl	%edi
.LVL539:
	addl	$16, %esp
.LBB2753:
.LBB2754:
	.loc 14 22 0
	movb	$0, (%eax)
	movb	$0, 8(%eax)
	movl	$_ZN9QueueTest8pushFuncEPv, 12(%eax)
.LBE2754:
.LBE2753:
	.loc 1 15 0
	cmpl	%edi, %esi
	ja	.L653
.L652:
.LBE2752:
	.loc 1 18 0
	subl	$12, %esp
	pushl	$16
	call	_Znwj
	.loc 1 21 0
	movl	$-858993459, %edx
	.loc 1 18 0
	movl	%eax, 92(%ebx)
.LBB2750:
.LBB2751:
	.loc 14 22 0
	movb	$0, (%eax)
	movb	$0, 8(%eax)
	movl	$_ZN9QueueTest7popFuncEPv, 12(%eax)
.LBE2751:
.LBE2750:
	.loc 1 21 0
	movl	12(%ebp), %eax
	mull	%edx
	shrl	$3, %edx
	addl	$16, %esp
	cmpl	$2, %edx
	je	.L656
.LVL540:
	cmpl	$3, %edx
	je	.L657
	decl	%edx
	je	.L722
	.loc 1 32 0
	subl	$12, %esp
	pushl	$.LC33
	pushl	$_ZZN9QueueTestC1EjjjE8__func__
	pushl	$_ZZN9QueueTestC1EjjjE19__PRETTY_FUNCTION__
	pushl	$.LC2
	pushl	$32
	.cfi_escape 0x2e,0x20
	call	vermont_exception
	addl	$32, %esp
.LVL541:
.L660:
	.loc 1 35 0
	movl	12(%ebp), %eax
	movl	$-858993459, %edx
	mull	%edx
	shrl	$3, %edx
	leal	(%edx,%edx,4), %eax
	movl	12(%ebp), %edx
	addl	%eax, %eax
	subl	%eax, %edx
	cmpl	$5, %edx
	jbe	.L723
.L671:
	.loc 1 61 0
	subl	$12, %esp
	pushl	$.LC35
	pushl	$_ZZN9QueueTestC1EjjjE8__func__
	pushl	$_ZZN9QueueTestC1EjjjE19__PRETTY_FUNCTION__
	pushl	$.LC2
	pushl	$61
	call	vermont_exception
	addl	$32, %esp
.L696:
.LBE2737:
	.loc 1 64 0
	leal	-12(%ebp), %esp
	popl	%ebx
.LVL542:
	popl	%esi
.LVL543:
	popl	%edi
.LVL544:
	popl	%ebp
	ret
.LVL545:
.L722:
.LBB2793:
	.loc 1 23 0
	subl	$12, %esp
	pushl	$100
	.cfi_escape 0x2e,0x10
	call	_Znwj
.LEHE65:
	addl	$16, %esp
	movl	20(%ebp), %edx
	movl	%eax, %edi
.LVL546:
.LEHB66:
	.cfi_escape 0x2e,0x0
	call	T.635
.LEHE66:
.LVL547:
.L717:
	.loc 1 29 0
	movl	%edi, 96(%ebx)
	.loc 1 30 0
	jmp	.L660
.LVL548:
	.p2align 4,,7
	.p2align 3
.L723:
	.loc 1 35 0
	jmp	*.L677(,%edx,4)
	.section	.rodata
	.align 4
	.align 4
.L677:
	.long	.L671
	.long	.L696
	.long	.L673
	.long	.L674
	.long	.L675
	.long	.L676
	.text
.LVL549:
	.p2align 4,,7
	.p2align 3
.L721:
	.loc 1 12 0
	subl	$12, %esp
	pushl	$.LC23
	pushl	$_ZZN9QueueTestC1EjjjE8__func__
	pushl	$_ZZN9QueueTestC1EjjjE19__PRETTY_FUNCTION__
	pushl	$.LC2
	pushl	$12
.LEHB67:
	.cfi_escape 0x2e,0x20
	call	vermont_exception
	addl	$32, %esp
	jmp	.L651
.LVL550:
	.p2align 4,,7
	.p2align 3
.L657:
	.loc 1 29 0
	subl	$12, %esp
	pushl	$32
	.cfi_escape 0x2e,0x10
	call	_Znwj
.LEHE67:
.LBB2755:
.LBB2758:
.LBB2761:
.LBB2768:
	.loc 3 503 0
	movl	20(%ebp), %edx
.LBE2768:
.LBE2761:
.LBE2758:
.LBE2755:
	.loc 1 29 0
	movl	%eax, %edi
.LVL551:
.LBB2775:
.LBB2757:
.LBB2760:
	.loc 3 502 0
	movl	$_ZTV23ConcurrentQueueSpinlockIjE+8, (%eax)
.LBB2765:
.LBB2766:
.LBB2767:
	.loc 16 255 0
	movl	$_ZNSs4_Rep20_S_empty_rep_storageE+12, 28(%eax)
.LBE2767:
.LBE2766:
.LBE2765:
.LBB2764:
	.loc 3 503 0
	movl	%edx, 24(%eax)
	.loc 3 507 0
	movl	$72, (%esp)
.LEHB68:
	call	_Znwj
.LEHE68:
	movl	%eax, -44(%ebp)
	movl	%eax, (%esp)
.LEHB69:
	call	_ZN8STLQueueIjEC1Ev
.LEHE69:
	movl	-44(%ebp), %eax
	addl	$16, %esp
	movl	%eax, 4(%edi)
.LEHB70:
	.loc 3 527 0
	.cfi_escape 0x2e,0x0
	call	_Z16getCachelineSizev
	movl	%eax, -44(%ebp)
	.loc 3 528 0
	cmpl	$11, %eax
	ja	.L665
	.loc 3 529 0
	subl	$12, %esp
	pushl	$.LC26
	pushl	$_ZZN23ConcurrentQueueSpinlockIjEC1EiijE8__func__
	pushl	$_ZZN23ConcurrentQueueSpinlockIjEC1EiijE19__PRETTY_FUNCTION__
	pushl	$.LC12
	pushl	$529
	.cfi_escape 0x2e,0x20
	call	vermont_exception
	addl	$32, %esp
.L665:
	.loc 3 532 0
	pushl	%eax
	movl	-44(%ebp), %ecx
	pushl	%ecx
	movl	-44(%ebp), %edx
	pushl	%edx
	leal	-28(%ebp), %edx
	pushl	%edx
	.cfi_escape 0x2e,0x10
	call	posix_memalign
	addl	$16, %esp
	testl	%eax, %eax
	je	.L666
	.loc 3 533 0
	subl	$12, %esp
	pushl	$.LC21
	pushl	$_ZZN23ConcurrentQueueSpinlockIjEC1EiijE8__func__
	pushl	$_ZZN23ConcurrentQueueSpinlockIjEC1EiijE19__PRETTY_FUNCTION__
	pushl	$.LC12
	pushl	$533
	.cfi_escape 0x2e,0x20
	call	vermont_exception
.LEHE70:
	addl	$32, %esp
.L666:
	.loc 3 534 0
	movl	-28(%ebp), %edx
.LVL552:
	movl	%edx, 8(%edi)
	.loc 3 535 0
	leal	4(%edx), %eax
	.loc 3 536 0
	movl	$0, (%edx)
	.loc 3 535 0
	movl	%eax, 12(%edi)
	.loc 3 537 0
	movl	$0, 4(%edx)
	.loc 3 538 0
	movl	$100, 4(%eax)
	.loc 3 541 0
	pushl	%eax
	movl	-44(%ebp), %ecx
	leal	-28(%ebp), %eax
	pushl	%ecx
	movl	-44(%ebp), %edx
	pushl	%edx
	pushl	%eax
	.cfi_escape 0x2e,0x10
	call	posix_memalign
	addl	$16, %esp
	testl	%eax, %eax
	jne	.L724
.L667:
	.loc 3 543 0
	movl	-28(%ebp), %eax
	movl	%eax, 16(%edi)
	.loc 3 544 0
	leal	4(%eax), %edx
	.loc 3 545 0
	movl	$0, (%eax)
	.loc 3 544 0
	movl	%edx, 20(%edi)
	.loc 3 546 0
	movl	$0, 4(%eax)
	.loc 3 547 0
	movl	$100, 4(%edx)
	jmp	.L717
.L659:
.LVL553:
	.p2align 4,,7
	.p2align 3
.L656:
.LBE2764:
.LBE2760:
.LBE2757:
.LBE2775:
	.loc 1 26 0
	subl	$12, %esp
	pushl	$48
.LEHB71:
	call	_Znwj
.LEHE71:
	addl	$16, %esp
	movl	20(%ebp), %edx
	movl	%eax, %edi
.LVL554:
.LEHB72:
	.cfi_escape 0x2e,0x0
	call	T.636
.LEHE72:
	jmp	.L717
.LVL555:
.L724:
.LBB2776:
.LBB2773:
.LBB2771:
.LBB2769:
	.loc 3 542 0
	subl	$12, %esp
	pushl	$.LC21
	pushl	$_ZZN23ConcurrentQueueSpinlockIjEC1EiijE8__func__
	pushl	$_ZZN23ConcurrentQueueSpinlockIjEC1EiijE19__PRETTY_FUNCTION__
	pushl	$.LC12
	pushl	$542
.LEHB73:
	.cfi_escape 0x2e,0x20
	call	vermont_exception
.LEHE73:
	addl	$32, %esp
	jmp	.L667
.LVL556:
.L673:
.LBE2769:
.LBE2771:
.LBE2773:
.LBE2776:
	.loc 1 39 0
	decl	%esi
.LVL557:
	je	.L678
	.loc 1 40 0
	subl	$12, %esp
	pushl	$.LC34
	pushl	$_ZZN9QueueTestC1EjjjE8__func__
	pushl	$_ZZN9QueueTestC1EjjjE19__PRETTY_FUNCTION__
	pushl	$.LC2
	pushl	$40
.LEHB74:
	call	vermont_exception
	addl	$32, %esp
.L678:
	.loc 1 41 0
	movl	96(%ebx), %edi
.LVL558:
	movl	4(%edi), %eax
	testl	%eax, %eax
	je	.L679
	subl	$12, %esp
	movl	(%eax), %edx
	pushl	%eax
	.cfi_escape 0x2e,0x10
	call	*4(%edx)
	movl	96(%ebx), %edi
	addl	$16, %esp
.L679:
	.loc 1 42 0
	subl	$12, %esp
	pushl	$36
	call	_Znwj
.LEHE74:
.LBB2777:
.LBB2779:
.LBB2781:
	.loc 5 29 0
	addl	$16, %esp
.LBE2781:
.LBE2779:
.LBE2777:
	.loc 1 42 0
	movl	%eax, %ebx
.LVL559:
.LBB2784:
.LBB2778:
	.loc 5 28 0
	movl	$_ZTV27LockfreeSingleQueueCacheOptIjE+8, (%eax)
.LEHB75:
.LBB2780:
	.loc 5 29 0
	.cfi_escape 0x2e,0x0
	call	_Z16getCachelineSizev
	movl	%eax, %esi
.LVL560:
	.loc 5 33 0
	pushl	%eax
	leal	0(,%esi,4), %eax
	pushl	%eax
	leal	-28(%ebp), %eax
	pushl	%esi
	pushl	%eax
	.cfi_escape 0x2e,0x10
	call	posix_memalign
	addl	$16, %esp
	testl	%eax, %eax
	je	.L680
	.loc 5 34 0
	subl	$12, %esp
	pushl	$.LC21
	pushl	$_ZZN27LockfreeSingleQueueCacheOptIjEC1EiE8__func__
	pushl	$_ZZN27LockfreeSingleQueueCacheOptIjEC1EiE19__PRETTY_FUNCTION__
	pushl	$.LC22
	pushl	$34
	.cfi_escape 0x2e,0x20
	call	vermont_exception
	addl	$32, %esp
.L680:
	.loc 5 37 0
	movl	-28(%ebp), %eax
.LVL561:
	.loc 5 42 0
	movl	-28(%ebp), %ecx
	shrl	$2, %esi
.LVL562:
	.loc 5 37 0
	movl	%eax, 4(%ebx)
	.loc 5 39 0
	movl	$0, (%eax)
	movl	$0, 4(%eax)
	.loc 5 38 0
	leal	4(%eax), %edx
	.loc 5 42 0
	leal	0(,%esi,4), %eax
	addl	%ecx, %eax
	.loc 5 38 0
	movl	%edx, 8(%ebx)
	.loc 5 42 0
	movl	%eax, 12(%ebx)
	.loc 5 55 0
	subl	$12, %esp
	.loc 5 43 0
	leal	4(%eax), %edx
	.loc 5 44 0
	movl	$0, (%eax)
	movl	$0, 4(%eax)
	.loc 5 43 0
	movl	%edx, 16(%ebx)
	.loc 5 47 0
	leal	0(,%esi,8), %eax
	movl	-28(%ebp), %edx
	addl	%edx, %eax
	movl	%eax, 20(%ebx)
	.loc 5 49 0
	movl	$0, (%eax)
	.loc 5 48 0
	leal	4(%eax), %edx
	.loc 5 49 0
	movl	$0, 4(%eax)
	.loc 5 52 0
	leal	(%esi,%esi,2), %eax
	movl	-28(%ebp), %esi
	.loc 5 48 0
	movl	%edx, 24(%ebx)
	.loc 5 53 0
	movl	20(%ebp), %edx
	.loc 5 52 0
	leal	(%esi,%eax,4), %eax
	.loc 5 53 0
	incl	%edx
	.loc 5 52 0
	movl	%eax, 28(%ebx)
	.loc 5 53 0
	movl	%edx, (%eax)
	.loc 5 55 0
	sall	$2, %edx
	pushl	%edx
	.cfi_escape 0x2e,0x10
	call	_Znaj
.LEHE75:
	movl	%eax, 32(%ebx)
.LBE2780:
.LBE2778:
.LBE2784:
	.loc 1 42 0
	movl	%ebx, 4(%edi)
.LBB2785:
.LBB2783:
.LBB2782:
	.loc 5 55 0
	addl	$16, %esp
.LBE2782:
.LBE2783:
.LBE2785:
.LBE2793:
	.loc 1 64 0
	leal	-12(%ebp), %esp
	popl	%ebx
	popl	%esi
	popl	%edi
	popl	%ebp
	ret
.L689:
.L705:
.L690:
.LVL563:
.L676:
.LBB2794:
	.loc 1 57 0
	movl	96(%ebx), %esi
.LVL564:
	movl	4(%esi), %eax
	testl	%eax, %eax
	je	.L691
	subl	$12, %esp
	movl	(%eax), %edx
	pushl	%eax
.LEHB76:
	call	*4(%edx)
	movl	96(%ebx), %esi
	addl	$16, %esp
.L691:
	.loc 1 58 0
	subl	$12, %esp
	pushl	$28
	call	_Znwj
.LEHE76:
	movl	%eax, %ebx
.LVL565:
.LBB2742:
.LBB2743:
	.loc 4 32 0
	movl	$0, 4(%eax)
	movl	$_ZTV18LockfreeMultiQueueIjE+8, (%eax)
	movl	$0, 8(%eax)
	movl	$0, 12(%eax)
	movl	$0, 16(%eax)
	movl	20(%ebp), %eax
	incl	%eax
	movl	%eax, 20(%ebx)
.LBB2744:
	.loc 4 37 0
	sall	$3, %eax
	movl	%eax, (%esp)
.LEHB77:
	call	_Znaj
.LEHE77:
.LBB2745:
	.loc 4 38 0
	movl	20(%ebx), %edi
.LVL566:
.LBE2745:
	.loc 4 37 0
	addl	$16, %esp
	movl	%eax, 24(%ebx)
.LBB2746:
	.loc 4 38 0
	testl	%edi, %edi
	je	.L692
	xorl	%ecx, %ecx
	xorl	%edx, %edx
.LVL567:
	jmp	.L693
	.p2align 4,,7
	.p2align 3
.L725:
	movl	24(%ebx), %eax
.L693:
	incl	%edx
	.loc 4 39 0
	movl	$0, (%eax,%ecx,8)
	movl	$0, 4(%eax,%ecx,8)
	.loc 4 38 0
	cmpl	%edx, %edi
	movl	%edx, %ecx
	ja	.L725
.L692:
.LBE2746:
.LBE2744:
.LBE2743:
.LBE2742:
	.loc 1 58 0
	movl	%ebx, 4(%esi)
.LBE2794:
	.loc 1 64 0
	leal	-12(%ebp), %esp
	popl	%ebx
	popl	%esi
	popl	%edi
	popl	%ebp
	ret
.L685:
.L706:
.L686:
.LVL568:
.L675:
.LBB2795:
	.loc 1 51 0
	decl	%esi
.LVL569:
	je	.L687
	.loc 1 52 0
	subl	$12, %esp
	pushl	$.LC34
	pushl	$_ZZN9QueueTestC1EjjjE8__func__
	pushl	$_ZZN9QueueTestC1EjjjE19__PRETTY_FUNCTION__
	pushl	$.LC2
	pushl	$52
.LEHB78:
	.cfi_escape 0x2e,0x20
	call	vermont_exception
	addl	$32, %esp
.L687:
	.loc 1 53 0
	movl	96(%ebx), %esi
	movl	4(%esi), %eax
	testl	%eax, %eax
	je	.L688
	subl	$12, %esp
	movl	(%eax), %edx
	pushl	%eax
	.cfi_escape 0x2e,0x10
	call	*4(%edx)
	movl	96(%ebx), %esi
	addl	$16, %esp
.L688:
	.loc 1 54 0
	subl	$12, %esp
	pushl	$324
	call	_Znwj
.LEHE78:
	movl	%eax, %ebx
.LVL570:
.LBB2786:
.LBB2787:
	.loc 5 214 0
	movl	$0, 68(%eax)
	movl	$_ZTV32LockfreeSingleQueueCacheOptLocalIjE+8, (%eax)
	movl	$0, 72(%eax)
	movl	$0, 132(%eax)
	movl	$0, 136(%eax)
	movl	$0, 196(%eax)
	movl	$0, 200(%eax)
	movl	20(%ebp), %eax
	incl	%eax
	movl	%eax, 260(%ebx)
	.loc 5 216 0
	sall	$2, %eax
	movl	%eax, (%esp)
.LEHB79:
	call	_Znaj
.LEHE79:
	movl	%eax, 264(%ebx)
.LBE2787:
.LBE2786:
	.loc 1 54 0
	movl	%ebx, 4(%esi)
.LBB2789:
.LBB2788:
	.loc 5 216 0
	addl	$16, %esp
.LBE2788:
.LBE2789:
.LBE2795:
	.loc 1 64 0
	leal	-12(%ebp), %esp
	popl	%ebx
	popl	%esi
	popl	%edi
.LVL571:
	popl	%ebp
	ret
.L681:
.L707:
.L682:
.LVL572:
.L674:
.LBB2796:
	.loc 1 45 0
	decl	%esi
.LVL573:
	je	.L683
	.loc 1 46 0
	subl	$12, %esp
	pushl	$.LC34
	pushl	$_ZZN9QueueTestC1EjjjE8__func__
	pushl	$_ZZN9QueueTestC1EjjjE19__PRETTY_FUNCTION__
	pushl	$.LC2
	pushl	$46
.LEHB80:
	.cfi_escape 0x2e,0x20
	call	vermont_exception
	addl	$32, %esp
.L683:
	.loc 1 47 0
	movl	96(%ebx), %esi
	movl	4(%esi), %eax
	testl	%eax, %eax
	je	.L684
	subl	$12, %esp
	movl	(%eax), %edx
	pushl	%eax
	.cfi_escape 0x2e,0x10
	call	*4(%edx)
	movl	96(%ebx), %esi
	addl	$16, %esp
.L684:
	.loc 1 48 0
	subl	$12, %esp
	pushl	$20
	call	_Znwj
.LEHE80:
	movl	%eax, %ebx
.LVL574:
.LBB2739:
.LBB2740:
	.loc 5 142 0
	movl	$_ZTV24LockfreeSingleQueueBasicIjE+8, (%eax)
	movl	20(%ebp), %eax
	incl	%eax
	movl	$0, 12(%ebx)
	movl	%eax, 4(%ebx)
	movl	$0, 16(%ebx)
	.loc 5 144 0
	sall	$2, %eax
	movl	%eax, (%esp)
.LEHB81:
	call	_Znaj
.LEHE81:
	movl	%eax, 8(%ebx)
.LBE2740:
.LBE2739:
	.loc 1 48 0
	movl	%ebx, 4(%esi)
.LBB2738:
.LBB2741:
	.loc 5 144 0
	addl	$16, %esp
.LBE2741:
.LBE2738:
.LBE2796:
	.loc 1 64 0
	leal	-12(%ebp), %esp
	popl	%ebx
	popl	%esi
	popl	%edi
.LVL575:
	popl	%ebp
	ret
.LVL576:
.L700:
.LVL577:
.L720:
.L694:
.L704:
.L695:
.LBB2797:
	.loc 1 58 0
	subl	$12, %esp
.LBB2790:
.LBB2749:
.LBB2747:
.LBB2748:
	.loc 2 23 0
	movl	$_ZTV9BaseQueueIjE+8, (%ebx)
	movl	%eax, %esi
.LVL578:
.LBE2748:
.LBE2747:
.LBE2749:
.LBE2790:
	.loc 1 58 0
	pushl	%ebx
.LVL579:
.L719:
	.loc 1 26 0
	call	_ZdlPv
	movl	%esi, (%esp)
.LEHB82:
	call	_Unwind_Resume
.LEHE82:
.LVL580:
.L702:
	movl	%eax, %esi
.LVL581:
.L668:
.L703:
.L669:
.L708:
.L670:
.LBB2791:
.LBB2756:
.LBB2759:
	.loc 3 547 0
	subl	$12, %esp
	leal	28(%edi), %eax
	pushl	%eax
	call	_ZNSsD1Ev
.LBB2762:
.LBB2763:
	.loc 3 34 0
	movl	$_ZTV19BaseConcurrentQueueIjE+8, (%edi)
.LBE2763:
.LBE2762:
.LBE2759:
.LBE2756:
.LBE2791:
	.loc 1 29 0
	movl	%edi, (%esp)
	jmp	.L719
.LVL582:
.L710:
.L718:
.L662:
	.loc 1 26 0
	subl	$12, %esp
	movl	%eax, %esi
.LVL583:
	pushl	%edi
	jmp	.L719
.LVL584:
.L709:
	jmp	.L718
.L701:
.L664:
.LBB2792:
.LBB2774:
.LBB2772:
.LBB2770:
	.loc 3 507 0
	subl	$12, %esp
	movl	%eax, %esi
.LVL585:
	pushl	-44(%ebp)
	call	_ZdlPv
	addl	$16, %esp
	jmp	.L668
.LVL586:
.L699:
	jmp	.L720
.L698:
	jmp	.L720
.LVL587:
.L697:
	jmp	.L720
.LBE2770:
.LBE2772:
.LBE2774:
.LBE2792:
.LBE2797:
	.cfi_endproc
.LFE1205:
	.size	_ZN9QueueTestC1Ejjj, .-_ZN9QueueTestC1Ejjj
	.section	.gcc_except_table
.LLSDA1205:
	.byte	0xff
	.byte	0xff
	.byte	0x1
	.uleb128 .LLSDACSE1205-.LLSDACSB1205
.LLSDACSB1205:
	.uleb128 .LEHB65-.LFB1205
	.uleb128 .LEHE65-.LEHB65
	.uleb128 0x0
	.uleb128 0x0
	.uleb128 .LEHB66-.LFB1205
	.uleb128 .LEHE66-.LEHB66
	.uleb128 .L710-.LFB1205
	.uleb128 0x0
	.uleb128 .LEHB67-.LFB1205
	.uleb128 .LEHE67-.LEHB67
	.uleb128 0x0
	.uleb128 0x0
	.uleb128 .LEHB68-.LFB1205
	.uleb128 .LEHE68-.LEHB68
	.uleb128 .L702-.LFB1205
	.uleb128 0x0
	.uleb128 .LEHB69-.LFB1205
	.uleb128 .LEHE69-.LEHB69
	.uleb128 .L701-.LFB1205
	.uleb128 0x0
	.uleb128 .LEHB70-.LFB1205
	.uleb128 .LEHE70-.LEHB70
	.uleb128 .L702-.LFB1205
	.uleb128 0x0
	.uleb128 .LEHB71-.LFB1205
	.uleb128 .LEHE71-.LEHB71
	.uleb128 0x0
	.uleb128 0x0
	.uleb128 .LEHB72-.LFB1205
	.uleb128 .LEHE72-.LEHB72
	.uleb128 .L709-.LFB1205
	.uleb128 0x0
	.uleb128 .LEHB73-.LFB1205
	.uleb128 .LEHE73-.LEHB73
	.uleb128 .L702-.LFB1205
	.uleb128 0x0
	.uleb128 .LEHB74-.LFB1205
	.uleb128 .LEHE74-.LEHB74
	.uleb128 0x0
	.uleb128 0x0
	.uleb128 .LEHB75-.LFB1205
	.uleb128 .LEHE75-.LEHB75
	.uleb128 .L700-.LFB1205
	.uleb128 0x0
	.uleb128 .LEHB76-.LFB1205
	.uleb128 .LEHE76-.LEHB76
	.uleb128 0x0
	.uleb128 0x0
	.uleb128 .LEHB77-.LFB1205
	.uleb128 .LEHE77-.LEHB77
	.uleb128 .L697-.LFB1205
	.uleb128 0x0
	.uleb128 .LEHB78-.LFB1205
	.uleb128 .LEHE78-.LEHB78
	.uleb128 0x0
	.uleb128 0x0
	.uleb128 .LEHB79-.LFB1205
	.uleb128 .LEHE79-.LEHB79
	.uleb128 .L698-.LFB1205
	.uleb128 0x0
	.uleb128 .LEHB80-.LFB1205
	.uleb128 .LEHE80-.LEHB80
	.uleb128 0x0
	.uleb128 0x0
	.uleb128 .LEHB81-.LFB1205
	.uleb128 .LEHE81-.LEHB81
	.uleb128 .L699-.LFB1205
	.uleb128 0x0
	.uleb128 .LEHB82-.LFB1205
	.uleb128 .LEHE82-.LEHB82
	.uleb128 0x0
	.uleb128 0x0
.LLSDACSE1205:
	.text
	.section	.rodata
	.type	_ZZN9QueueTest7popFuncEPvE8__func__, @object
	.size	_ZZN9QueueTest7popFuncEPvE8__func__, 8
_ZZN9QueueTest7popFuncEPvE8__func__:
	.string	"popFunc"
	.align 32
	.type	_ZZN9QueueTest7popFuncEPvE19__PRETTY_FUNCTION__, @object
	.size	_ZZN9QueueTest7popFuncEPvE19__PRETTY_FUNCTION__, 39
_ZZN9QueueTest7popFuncEPvE19__PRETTY_FUNCTION__:
	.string	"static void* QueueTest::popFunc(void*)"
	.type	_ZZN6Thread3runEPvE8__func__, @object
	.size	_ZZN6Thread3runEPvE8__func__, 4
_ZZN6Thread3runEPvE8__func__:
	.string	"run"
	.type	_ZZN6Thread3runEPvE19__PRETTY_FUNCTION__, @object
	.size	_ZZN6Thread3runEPvE19__PRETTY_FUNCTION__, 24
_ZZN6Thread3runEPvE19__PRETTY_FUNCTION__:
	.string	"void Thread::run(void*)"
	.type	_ZZN6Thread4joinEvE8__func__, @object
	.size	_ZZN6Thread4joinEvE8__func__, 5
_ZZN6Thread4joinEvE8__func__:
	.string	"join"
	.type	_ZZN6Thread4joinEvE19__PRETTY_FUNCTION__, @object
	.size	_ZZN6Thread4joinEvE19__PRETTY_FUNCTION__, 21
_ZZN6Thread4joinEvE19__PRETTY_FUNCTION__:
	.string	"void* Thread::join()"
	.type	_ZZN9QueueTestC1EjjjE8__func__, @object
	.size	_ZZN9QueueTestC1EjjjE8__func__, 10
_ZZN9QueueTestC1EjjjE8__func__:
	.string	"QueueTest"
	.align 32
	.type	_ZZN9QueueTestC1EjjjE19__PRETTY_FUNCTION__, @object
	.size	_ZZN9QueueTestC1EjjjE19__PRETTY_FUNCTION__, 51
_ZZN9QueueTestC1EjjjE19__PRETTY_FUNCTION__:
	.string	"QueueTest::QueueTest(uint32_t, uint32_t, uint32_t)"
	.weak	_ZTV15ConcurrentQueueIjE
	.section	.rodata._ZTV15ConcurrentQueueIjE,"aG",@progbits,_ZTV15ConcurrentQueueIjE,comdat
	.align 32
	.type	_ZTV15ConcurrentQueueIjE, @object
	.size	_ZTV15ConcurrentQueueIjE, 36
_ZTV15ConcurrentQueueIjE:
	.long	0
	.long	_ZTI15ConcurrentQueueIjE
	.long	_ZN15ConcurrentQueueIjED1Ev
	.long	_ZN15ConcurrentQueueIjED0Ev
	.long	_ZN15ConcurrentQueueIjE4pushEj
	.long	_ZN15ConcurrentQueueIjE3popEPj
	.long	_ZN15ConcurrentQueueIjE6popAbsERK8timespecPj
	.long	_ZN15ConcurrentQueueIjE7restartEv
	.long	_ZN19BaseConcurrentQueueIjE5resetEv
	.weak	_ZTI15ConcurrentQueueIjE
	.section	.rodata._ZTI15ConcurrentQueueIjE,"aG",@progbits,_ZTI15ConcurrentQueueIjE,comdat
	.align 4
	.type	_ZTI15ConcurrentQueueIjE, @object
	.size	_ZTI15ConcurrentQueueIjE, 12
_ZTI15ConcurrentQueueIjE:
	.long	_ZTVN10__cxxabiv120__si_class_type_infoE+8
	.long	_ZTS15ConcurrentQueueIjE
	.long	_ZTI19BaseConcurrentQueueIjE
	.weak	_ZTS15ConcurrentQueueIjE
	.section	.rodata._ZTS15ConcurrentQueueIjE,"aG",@progbits,_ZTS15ConcurrentQueueIjE,comdat
	.type	_ZTS15ConcurrentQueueIjE, @object
	.size	_ZTS15ConcurrentQueueIjE, 21
_ZTS15ConcurrentQueueIjE:
	.string	"15ConcurrentQueueIjE"
	.weak	_ZTI19BaseConcurrentQueueIjE
	.section	.rodata._ZTI19BaseConcurrentQueueIjE,"aG",@progbits,_ZTI19BaseConcurrentQueueIjE,comdat
	.align 4
	.type	_ZTI19BaseConcurrentQueueIjE, @object
	.size	_ZTI19BaseConcurrentQueueIjE, 8
_ZTI19BaseConcurrentQueueIjE:
	.long	_ZTVN10__cxxabiv117__class_type_infoE+8
	.long	_ZTS19BaseConcurrentQueueIjE
	.weak	_ZTS19BaseConcurrentQueueIjE
	.section	.rodata._ZTS19BaseConcurrentQueueIjE,"aG",@progbits,_ZTS19BaseConcurrentQueueIjE,comdat
	.type	_ZTS19BaseConcurrentQueueIjE, @object
	.size	_ZTS19BaseConcurrentQueueIjE, 25
_ZTS19BaseConcurrentQueueIjE:
	.string	"19BaseConcurrentQueueIjE"
	.section	.rodata
	.align 32
	.type	_ZZN15ConcurrentQueueIjE6popAbsERK8timespecPjE19__PRETTY_FUNCTION__, @object
	.size	_ZZN15ConcurrentQueueIjE6popAbsERK8timespecPjE19__PRETTY_FUNCTION__, 77
_ZZN15ConcurrentQueueIjE6popAbsERK8timespecPjE19__PRETTY_FUNCTION__:
	.string	"bool ConcurrentQueue<T>::popAbs(const timespec&, T*) [with T = unsigned int]"
	.type	_ZZN15ConcurrentQueueIjE6popAbsERK8timespecPjE8__func__, @object
	.size	_ZZN15ConcurrentQueueIjE6popAbsERK8timespecPjE8__func__, 7
_ZZN15ConcurrentQueueIjE6popAbsERK8timespecPjE8__func__:
	.string	"popAbs"
	.type	_ZZN16TimeoutSemaphore7waitAbsERK8timespecE8__func__, @object
	.size	_ZZN16TimeoutSemaphore7waitAbsERK8timespecE8__func__, 8
_ZZN16TimeoutSemaphore7waitAbsERK8timespecE8__func__:
	.string	"waitAbs"
	.align 32
	.type	_ZZN16TimeoutSemaphore7waitAbsERK8timespecE19__PRETTY_FUNCTION__, @object
	.size	_ZZN16TimeoutSemaphore7waitAbsERK8timespecE19__PRETTY_FUNCTION__, 48
_ZZN16TimeoutSemaphore7waitAbsERK8timespecE19__PRETTY_FUNCTION__:
	.string	"bool TimeoutSemaphore::waitAbs(const timespec&)"
	.type	_ZZN16TimeoutSemaphore4postEvE8__func__, @object
	.size	_ZZN16TimeoutSemaphore4postEvE8__func__, 5
_ZZN16TimeoutSemaphore4postEvE8__func__:
	.string	"post"
	.type	_ZZN16TimeoutSemaphore4postEvE19__PRETTY_FUNCTION__, @object
	.size	_ZZN16TimeoutSemaphore4postEvE19__PRETTY_FUNCTION__, 30
_ZZN16TimeoutSemaphore4postEvE19__PRETTY_FUNCTION__:
	.string	"void TimeoutSemaphore::post()"
	.align 32
	.type	_ZZN15ConcurrentQueueIjE3popEPjE19__PRETTY_FUNCTION__, @object
	.size	_ZZN15ConcurrentQueueIjE3popEPjE19__PRETTY_FUNCTION__, 57
_ZZN15ConcurrentQueueIjE3popEPjE19__PRETTY_FUNCTION__:
	.string	"bool ConcurrentQueue<T>::pop(T*) [with T = unsigned int]"
	.type	_ZZN15ConcurrentQueueIjE3popEPjE8__func__, @object
	.size	_ZZN15ConcurrentQueueIjE3popEPjE8__func__, 4
_ZZN15ConcurrentQueueIjE3popEPjE8__func__:
	.string	"pop"
	.type	_ZZN16TimeoutSemaphore4waitElE8__func__, @object
	.size	_ZZN16TimeoutSemaphore4waitElE8__func__, 5
_ZZN16TimeoutSemaphore4waitElE8__func__:
	.string	"wait"
	.align 32
	.type	_ZZN16TimeoutSemaphore4waitElE19__PRETTY_FUNCTION__, @object
	.size	_ZZN16TimeoutSemaphore4waitElE19__PRETTY_FUNCTION__, 38
_ZZN16TimeoutSemaphore4waitElE19__PRETTY_FUNCTION__:
	.string	"bool TimeoutSemaphore::wait(long int)"
	.align 32
	.type	_ZZN15ConcurrentQueueIjE4pushEjE19__PRETTY_FUNCTION__, @object
	.size	_ZZN15ConcurrentQueueIjE4pushEjE19__PRETTY_FUNCTION__, 57
_ZZN15ConcurrentQueueIjE4pushEjE19__PRETTY_FUNCTION__:
	.string	"void ConcurrentQueue<T>::push(T) [with T = unsigned int]"
	.type	_ZZN15ConcurrentQueueIjE4pushEjE8__func__, @object
	.size	_ZZN15ConcurrentQueueIjE4pushEjE8__func__, 5
_ZZN15ConcurrentQueueIjE4pushEjE8__func__:
	.string	"push"
	.align 32
	.type	_ZZN15ConcurrentQueueIjED1EvE19__PRETTY_FUNCTION__, @object
	.size	_ZZN15ConcurrentQueueIjED1EvE19__PRETTY_FUNCTION__, 63
_ZZN15ConcurrentQueueIjED1EvE19__PRETTY_FUNCTION__:
	.string	"ConcurrentQueue<T>::~ConcurrentQueue() [with T = unsigned int]"
	.type	_ZZN15ConcurrentQueueIjED1EvE8__func__, @object
	.size	_ZZN15ConcurrentQueueIjED1EvE8__func__, 17
_ZZN15ConcurrentQueueIjED1EvE8__func__:
	.string	"~ConcurrentQueue"
	.weak	_ZTV19BaseConcurrentQueueIjE
	.section	.rodata._ZTV19BaseConcurrentQueueIjE,"aG",@progbits,_ZTV19BaseConcurrentQueueIjE,comdat
	.align 32
	.type	_ZTV19BaseConcurrentQueueIjE, @object
	.size	_ZTV19BaseConcurrentQueueIjE, 36
_ZTV19BaseConcurrentQueueIjE:
	.long	0
	.long	_ZTI19BaseConcurrentQueueIjE
	.long	_ZN19BaseConcurrentQueueIjED1Ev
	.long	_ZN19BaseConcurrentQueueIjED0Ev
	.long	__cxa_pure_virtual
	.long	__cxa_pure_virtual
	.long	__cxa_pure_virtual
	.long	_ZN19BaseConcurrentQueueIjE7restartEv
	.long	_ZN19BaseConcurrentQueueIjE5resetEv
	.weak	_ZTV16TimeoutSemaphore
	.section	.rodata._ZTV16TimeoutSemaphore,"aG",@progbits,_ZTV16TimeoutSemaphore,comdat
	.align 8
	.type	_ZTV16TimeoutSemaphore, @object
	.size	_ZTV16TimeoutSemaphore, 16
_ZTV16TimeoutSemaphore:
	.long	0
	.long	_ZTI16TimeoutSemaphore
	.long	_ZN16TimeoutSemaphoreD1Ev
	.long	_ZN16TimeoutSemaphoreD0Ev
	.section	.rodata
	.type	_ZZN16TimeoutSemaphoreC1EiE8__func__, @object
	.size	_ZZN16TimeoutSemaphoreC1EiE8__func__, 17
_ZZN16TimeoutSemaphoreC1EiE8__func__:
	.string	"TimeoutSemaphore"
	.align 32
	.type	_ZZN16TimeoutSemaphoreC1EiE19__PRETTY_FUNCTION__, @object
	.size	_ZZN16TimeoutSemaphoreC1EiE19__PRETTY_FUNCTION__, 40
_ZZN16TimeoutSemaphoreC1EiE19__PRETTY_FUNCTION__:
	.string	"TimeoutSemaphore::TimeoutSemaphore(int)"
	.weak	_ZTI16TimeoutSemaphore
	.section	.rodata._ZTI16TimeoutSemaphore,"aG",@progbits,_ZTI16TimeoutSemaphore,comdat
	.align 4
	.type	_ZTI16TimeoutSemaphore, @object
	.size	_ZTI16TimeoutSemaphore, 8
_ZTI16TimeoutSemaphore:
	.long	_ZTVN10__cxxabiv117__class_type_infoE+8
	.long	_ZTS16TimeoutSemaphore
	.weak	_ZTS16TimeoutSemaphore
	.section	.rodata._ZTS16TimeoutSemaphore,"aG",@progbits,_ZTS16TimeoutSemaphore,comdat
	.type	_ZTS16TimeoutSemaphore, @object
	.size	_ZTS16TimeoutSemaphore, 19
_ZTS16TimeoutSemaphore:
	.string	"16TimeoutSemaphore"
	.section	.rodata
	.type	_ZZN16TimeoutSemaphoreD1EvE8__func__, @object
	.size	_ZZN16TimeoutSemaphoreD1EvE8__func__, 18
_ZZN16TimeoutSemaphoreD1EvE8__func__:
	.string	"~TimeoutSemaphore"
	.align 32
	.type	_ZZN16TimeoutSemaphoreD1EvE19__PRETTY_FUNCTION__, @object
	.size	_ZZN16TimeoutSemaphoreD1EvE19__PRETTY_FUNCTION__, 46
_ZZN16TimeoutSemaphoreD1EvE19__PRETTY_FUNCTION__:
	.string	"virtual TimeoutSemaphore::~TimeoutSemaphore()"
	.weak	_ZTV8STLQueueIjE
	.section	.rodata._ZTV8STLQueueIjE,"aG",@progbits,_ZTV8STLQueueIjE,comdat
	.align 8
	.type	_ZTV8STLQueueIjE, @object
	.size	_ZTV8STLQueueIjE, 28
_ZTV8STLQueueIjE:
	.long	0
	.long	_ZTI8STLQueueIjE
	.long	_ZN8STLQueueIjED1Ev
	.long	_ZN8STLQueueIjED0Ev
	.long	_ZN8STLQueueIjE4pushEj
	.long	_ZN8STLQueueIjE3popEPj
	.long	_ZN9BaseQueueIjE5resetEv
	.weak	_ZTI8STLQueueIjE
	.section	.rodata._ZTI8STLQueueIjE,"aG",@progbits,_ZTI8STLQueueIjE,comdat
	.align 4
	.type	_ZTI8STLQueueIjE, @object
	.size	_ZTI8STLQueueIjE, 12
_ZTI8STLQueueIjE:
	.long	_ZTVN10__cxxabiv120__si_class_type_infoE+8
	.long	_ZTS8STLQueueIjE
	.long	_ZTI9BaseQueueIjE
	.weak	_ZTS8STLQueueIjE
	.section	.rodata._ZTS8STLQueueIjE,"aG",@progbits,_ZTS8STLQueueIjE,comdat
	.type	_ZTS8STLQueueIjE, @object
	.size	_ZTS8STLQueueIjE, 13
_ZTS8STLQueueIjE:
	.string	"8STLQueueIjE"
	.weak	_ZTI9BaseQueueIjE
	.section	.rodata._ZTI9BaseQueueIjE,"aG",@progbits,_ZTI9BaseQueueIjE,comdat
	.align 4
	.type	_ZTI9BaseQueueIjE, @object
	.size	_ZTI9BaseQueueIjE, 8
_ZTI9BaseQueueIjE:
	.long	_ZTVN10__cxxabiv117__class_type_infoE+8
	.long	_ZTS9BaseQueueIjE
	.weak	_ZTS9BaseQueueIjE
	.section	.rodata._ZTS9BaseQueueIjE,"aG",@progbits,_ZTS9BaseQueueIjE,comdat
	.type	_ZTS9BaseQueueIjE, @object
	.size	_ZTS9BaseQueueIjE, 14
_ZTS9BaseQueueIjE:
	.string	"9BaseQueueIjE"
	.section	.rodata
	.type	_ZZN5Mutex4lockEvE8__func__, @object
	.size	_ZZN5Mutex4lockEvE8__func__, 5
_ZZN5Mutex4lockEvE8__func__:
	.string	"lock"
	.type	_ZZN5Mutex4lockEvE19__PRETTY_FUNCTION__, @object
	.size	_ZZN5Mutex4lockEvE19__PRETTY_FUNCTION__, 19
_ZZN5Mutex4lockEvE19__PRETTY_FUNCTION__:
	.string	"void Mutex::lock()"
	.type	_ZZN5Mutex6unlockEvE8__func__, @object
	.size	_ZZN5Mutex6unlockEvE8__func__, 7
_ZZN5Mutex6unlockEvE8__func__:
	.string	"unlock"
	.type	_ZZN5Mutex6unlockEvE19__PRETTY_FUNCTION__, @object
	.size	_ZZN5Mutex6unlockEvE19__PRETTY_FUNCTION__, 21
_ZZN5Mutex6unlockEvE19__PRETTY_FUNCTION__:
	.string	"void Mutex::unlock()"
	.weak	_ZTV5Mutex
	.section	.rodata._ZTV5Mutex,"aG",@progbits,_ZTV5Mutex,comdat
	.align 8
	.type	_ZTV5Mutex, @object
	.size	_ZTV5Mutex, 16
_ZTV5Mutex:
	.long	0
	.long	_ZTI5Mutex
	.long	_ZN5MutexD1Ev
	.long	_ZN5MutexD0Ev
	.weak	_ZTI5Mutex
	.section	.rodata._ZTI5Mutex,"aG",@progbits,_ZTI5Mutex,comdat
	.align 4
	.type	_ZTI5Mutex, @object
	.size	_ZTI5Mutex, 8
_ZTI5Mutex:
	.long	_ZTVN10__cxxabiv117__class_type_infoE+8
	.long	_ZTS5Mutex
	.weak	_ZTS5Mutex
	.section	.rodata._ZTS5Mutex,"aG",@progbits,_ZTS5Mutex,comdat
	.type	_ZTS5Mutex, @object
	.size	_ZTS5Mutex, 7
_ZTS5Mutex:
	.string	"5Mutex"
	.weak	_ZTV9BaseQueueIjE
	.section	.rodata._ZTV9BaseQueueIjE,"aG",@progbits,_ZTV9BaseQueueIjE,comdat
	.align 8
	.type	_ZTV9BaseQueueIjE, @object
	.size	_ZTV9BaseQueueIjE, 28
_ZTV9BaseQueueIjE:
	.long	0
	.long	_ZTI9BaseQueueIjE
	.long	_ZN9BaseQueueIjED1Ev
	.long	_ZN9BaseQueueIjED0Ev
	.long	__cxa_pure_virtual
	.long	__cxa_pure_virtual
	.long	_ZN9BaseQueueIjE5resetEv
	.weak	_ZTV19ConcurrentQueueCondIjE
	.section	.rodata._ZTV19ConcurrentQueueCondIjE,"aG",@progbits,_ZTV19ConcurrentQueueCondIjE,comdat
	.align 32
	.type	_ZTV19ConcurrentQueueCondIjE, @object
	.size	_ZTV19ConcurrentQueueCondIjE, 36
_ZTV19ConcurrentQueueCondIjE:
	.long	0
	.long	_ZTI19ConcurrentQueueCondIjE
	.long	_ZN19ConcurrentQueueCondIjED1Ev
	.long	_ZN19ConcurrentQueueCondIjED0Ev
	.long	_ZN19ConcurrentQueueCondIjE4pushEj
	.long	_ZN19ConcurrentQueueCondIjE3popEPj
	.long	_ZN19ConcurrentQueueCondIjE6popAbsERK8timespecPj
	.long	_ZN19BaseConcurrentQueueIjE7restartEv
	.long	_ZN19BaseConcurrentQueueIjE5resetEv
	.section	.rodata
	.align 32
	.type	_ZZN19ConcurrentQueueCondIjEC1EiiiE19__PRETTY_FUNCTION__, @object
	.size	_ZZN19ConcurrentQueueCondIjEC1EiiiE19__PRETTY_FUNCTION__, 83
_ZZN19ConcurrentQueueCondIjEC1EiiiE19__PRETTY_FUNCTION__:
	.string	"ConcurrentQueueCond<T>::ConcurrentQueueCond(int, int, int) [with T = unsigned int]"
	.type	_ZZN19ConcurrentQueueCondIjEC1EiiiE8__func__, @object
	.size	_ZZN19ConcurrentQueueCondIjEC1EiiiE8__func__, 20
_ZZN19ConcurrentQueueCondIjEC1EiiiE8__func__:
	.string	"ConcurrentQueueCond"
	.weak	_ZTI19ConcurrentQueueCondIjE
	.section	.rodata._ZTI19ConcurrentQueueCondIjE,"aG",@progbits,_ZTI19ConcurrentQueueCondIjE,comdat
	.align 4
	.type	_ZTI19ConcurrentQueueCondIjE, @object
	.size	_ZTI19ConcurrentQueueCondIjE, 12
_ZTI19ConcurrentQueueCondIjE:
	.long	_ZTVN10__cxxabiv120__si_class_type_infoE+8
	.long	_ZTS19ConcurrentQueueCondIjE
	.long	_ZTI19BaseConcurrentQueueIjE
	.weak	_ZTS19ConcurrentQueueCondIjE
	.section	.rodata._ZTS19ConcurrentQueueCondIjE,"aG",@progbits,_ZTS19ConcurrentQueueCondIjE,comdat
	.type	_ZTS19ConcurrentQueueCondIjE, @object
	.size	_ZTS19ConcurrentQueueCondIjE, 25
_ZTS19ConcurrentQueueCondIjE:
	.string	"19ConcurrentQueueCondIjE"
	.section	.rodata
	.align 32
	.type	_ZZN19ConcurrentQueueCondIjE6popAbsERK8timespecPjE19__PRETTY_FUNCTION__, @object
	.size	_ZZN19ConcurrentQueueCondIjE6popAbsERK8timespecPjE19__PRETTY_FUNCTION__, 81
_ZZN19ConcurrentQueueCondIjE6popAbsERK8timespecPjE19__PRETTY_FUNCTION__:
	.string	"bool ConcurrentQueueCond<T>::popAbs(const timespec&, T*) [with T = unsigned int]"
	.type	_ZZN19ConcurrentQueueCondIjE6popAbsERK8timespecPjE8__func__, @object
	.size	_ZZN19ConcurrentQueueCondIjE6popAbsERK8timespecPjE8__func__, 7
_ZZN19ConcurrentQueueCondIjE6popAbsERK8timespecPjE8__func__:
	.string	"popAbs"
	.align 32
	.type	_ZZN19ConcurrentQueueCondIjE3popEPjE19__PRETTY_FUNCTION__, @object
	.size	_ZZN19ConcurrentQueueCondIjE3popEPjE19__PRETTY_FUNCTION__, 61
_ZZN19ConcurrentQueueCondIjE3popEPjE19__PRETTY_FUNCTION__:
	.string	"bool ConcurrentQueueCond<T>::pop(T*) [with T = unsigned int]"
	.type	_ZZN19ConcurrentQueueCondIjE3popEPjE8__func__, @object
	.size	_ZZN19ConcurrentQueueCondIjE3popEPjE8__func__, 4
_ZZN19ConcurrentQueueCondIjE3popEPjE8__func__:
	.string	"pop"
	.align 32
	.type	_ZZN19ConcurrentQueueCondIjE4pushEjE19__PRETTY_FUNCTION__, @object
	.size	_ZZN19ConcurrentQueueCondIjE4pushEjE19__PRETTY_FUNCTION__, 61
_ZZN19ConcurrentQueueCondIjE4pushEjE19__PRETTY_FUNCTION__:
	.string	"void ConcurrentQueueCond<T>::push(T) [with T = unsigned int]"
	.type	_ZZN19ConcurrentQueueCondIjE4pushEjE8__func__, @object
	.size	_ZZN19ConcurrentQueueCondIjE4pushEjE8__func__, 5
_ZZN19ConcurrentQueueCondIjE4pushEjE8__func__:
	.string	"push"
	.align 32
	.type	_ZZN19ConcurrentQueueCondIjED1EvE19__PRETTY_FUNCTION__, @object
	.size	_ZZN19ConcurrentQueueCondIjED1EvE19__PRETTY_FUNCTION__, 71
_ZZN19ConcurrentQueueCondIjED1EvE19__PRETTY_FUNCTION__:
	.string	"ConcurrentQueueCond<T>::~ConcurrentQueueCond() [with T = unsigned int]"
	.type	_ZZN19ConcurrentQueueCondIjED1EvE8__func__, @object
	.size	_ZZN19ConcurrentQueueCondIjED1EvE8__func__, 21
_ZZN19ConcurrentQueueCondIjED1EvE8__func__:
	.string	"~ConcurrentQueueCond"
	.weak	_ZTV23ConcurrentQueueSpinlockIjE
	.section	.rodata._ZTV23ConcurrentQueueSpinlockIjE,"aG",@progbits,_ZTV23ConcurrentQueueSpinlockIjE,comdat
	.align 32
	.type	_ZTV23ConcurrentQueueSpinlockIjE, @object
	.size	_ZTV23ConcurrentQueueSpinlockIjE, 36
_ZTV23ConcurrentQueueSpinlockIjE:
	.long	0
	.long	_ZTI23ConcurrentQueueSpinlockIjE
	.long	_ZN23ConcurrentQueueSpinlockIjED1Ev
	.long	_ZN23ConcurrentQueueSpinlockIjED0Ev
	.long	_ZN23ConcurrentQueueSpinlockIjE4pushEj
	.long	_ZN23ConcurrentQueueSpinlockIjE3popEPj
	.long	_ZN23ConcurrentQueueSpinlockIjE6popAbsERK8timespecPj
	.long	_ZN19BaseConcurrentQueueIjE7restartEv
	.long	_ZN19BaseConcurrentQueueIjE5resetEv
	.section	.rodata
	.align 32
	.type	_ZZN23ConcurrentQueueSpinlockIjEC1EiijE19__PRETTY_FUNCTION__, @object
	.size	_ZZN23ConcurrentQueueSpinlockIjEC1EiijE19__PRETTY_FUNCTION__, 96
_ZZN23ConcurrentQueueSpinlockIjEC1EiijE19__PRETTY_FUNCTION__:
	.string	"ConcurrentQueueSpinlock<T>::ConcurrentQueueSpinlock(int, int, uint32_t) [with T = unsigned int]"
	.type	_ZZN23ConcurrentQueueSpinlockIjEC1EiijE8__func__, @object
	.size	_ZZN23ConcurrentQueueSpinlockIjEC1EiijE8__func__, 24
_ZZN23ConcurrentQueueSpinlockIjEC1EiijE8__func__:
	.string	"ConcurrentQueueSpinlock"
	.weak	_ZTI23ConcurrentQueueSpinlockIjE
	.section	.rodata._ZTI23ConcurrentQueueSpinlockIjE,"aG",@progbits,_ZTI23ConcurrentQueueSpinlockIjE,comdat
	.align 4
	.type	_ZTI23ConcurrentQueueSpinlockIjE, @object
	.size	_ZTI23ConcurrentQueueSpinlockIjE, 12
_ZTI23ConcurrentQueueSpinlockIjE:
	.long	_ZTVN10__cxxabiv120__si_class_type_infoE+8
	.long	_ZTS23ConcurrentQueueSpinlockIjE
	.long	_ZTI19BaseConcurrentQueueIjE
	.weak	_ZTS23ConcurrentQueueSpinlockIjE
	.section	.rodata._ZTS23ConcurrentQueueSpinlockIjE,"aG",@progbits,_ZTS23ConcurrentQueueSpinlockIjE,comdat
	.type	_ZTS23ConcurrentQueueSpinlockIjE, @object
	.size	_ZTS23ConcurrentQueueSpinlockIjE, 29
_ZTS23ConcurrentQueueSpinlockIjE:
	.string	"23ConcurrentQueueSpinlockIjE"
	.section	.rodata
	.align 32
	.type	_ZZN23ConcurrentQueueSpinlockIjED1EvE19__PRETTY_FUNCTION__, @object
	.size	_ZZN23ConcurrentQueueSpinlockIjED1EvE19__PRETTY_FUNCTION__, 79
_ZZN23ConcurrentQueueSpinlockIjED1EvE19__PRETTY_FUNCTION__:
	.string	"ConcurrentQueueSpinlock<T>::~ConcurrentQueueSpinlock() [with T = unsigned int]"
	.type	_ZZN23ConcurrentQueueSpinlockIjED1EvE8__func__, @object
	.size	_ZZN23ConcurrentQueueSpinlockIjED1EvE8__func__, 25
_ZZN23ConcurrentQueueSpinlockIjED1EvE8__func__:
	.string	"~ConcurrentQueueSpinlock"
	.weak	_ZTV27LockfreeSingleQueueCacheOptIjE
	.section	.rodata._ZTV27LockfreeSingleQueueCacheOptIjE,"aG",@progbits,_ZTV27LockfreeSingleQueueCacheOptIjE,comdat
	.align 8
	.type	_ZTV27LockfreeSingleQueueCacheOptIjE, @object
	.size	_ZTV27LockfreeSingleQueueCacheOptIjE, 28
_ZTV27LockfreeSingleQueueCacheOptIjE:
	.long	0
	.long	_ZTI27LockfreeSingleQueueCacheOptIjE
	.long	_ZN27LockfreeSingleQueueCacheOptIjED1Ev
	.long	_ZN27LockfreeSingleQueueCacheOptIjED0Ev
	.long	_ZN27LockfreeSingleQueueCacheOptIjE4pushEj
	.long	_ZN27LockfreeSingleQueueCacheOptIjE3popEPj
	.long	_ZN27LockfreeSingleQueueCacheOptIjE5resetEv
	.section	.rodata
	.align 32
	.type	_ZZN27LockfreeSingleQueueCacheOptIjEC1EiE19__PRETTY_FUNCTION__, @object
	.size	_ZZN27LockfreeSingleQueueCacheOptIjEC1EiE19__PRETTY_FUNCTION__, 89
_ZZN27LockfreeSingleQueueCacheOptIjEC1EiE19__PRETTY_FUNCTION__:
	.string	"LockfreeSingleQueueCacheOpt<T>::LockfreeSingleQueueCacheOpt(int) [with T = unsigned int]"
	.type	_ZZN27LockfreeSingleQueueCacheOptIjEC1EiE8__func__, @object
	.size	_ZZN27LockfreeSingleQueueCacheOptIjEC1EiE8__func__, 28
_ZZN27LockfreeSingleQueueCacheOptIjEC1EiE8__func__:
	.string	"LockfreeSingleQueueCacheOpt"
	.weak	_ZTI27LockfreeSingleQueueCacheOptIjE
	.section	.rodata._ZTI27LockfreeSingleQueueCacheOptIjE,"aG",@progbits,_ZTI27LockfreeSingleQueueCacheOptIjE,comdat
	.align 4
	.type	_ZTI27LockfreeSingleQueueCacheOptIjE, @object
	.size	_ZTI27LockfreeSingleQueueCacheOptIjE, 12
_ZTI27LockfreeSingleQueueCacheOptIjE:
	.long	_ZTVN10__cxxabiv120__si_class_type_infoE+8
	.long	_ZTS27LockfreeSingleQueueCacheOptIjE
	.long	_ZTI9BaseQueueIjE
	.weak	_ZTS27LockfreeSingleQueueCacheOptIjE
	.section	.rodata._ZTS27LockfreeSingleQueueCacheOptIjE,"aG",@progbits,_ZTS27LockfreeSingleQueueCacheOptIjE,comdat
	.align 32
	.type	_ZTS27LockfreeSingleQueueCacheOptIjE, @object
	.size	_ZTS27LockfreeSingleQueueCacheOptIjE, 33
_ZTS27LockfreeSingleQueueCacheOptIjE:
	.string	"27LockfreeSingleQueueCacheOptIjE"
	.weak	_ZTV24LockfreeSingleQueueBasicIjE
	.section	.rodata._ZTV24LockfreeSingleQueueBasicIjE,"aG",@progbits,_ZTV24LockfreeSingleQueueBasicIjE,comdat
	.align 8
	.type	_ZTV24LockfreeSingleQueueBasicIjE, @object
	.size	_ZTV24LockfreeSingleQueueBasicIjE, 28
_ZTV24LockfreeSingleQueueBasicIjE:
	.long	0
	.long	_ZTI24LockfreeSingleQueueBasicIjE
	.long	_ZN24LockfreeSingleQueueBasicIjED1Ev
	.long	_ZN24LockfreeSingleQueueBasicIjED0Ev
	.long	_ZN24LockfreeSingleQueueBasicIjE4pushEj
	.long	_ZN24LockfreeSingleQueueBasicIjE3popEPj
	.long	_ZN9BaseQueueIjE5resetEv
	.weak	_ZTI24LockfreeSingleQueueBasicIjE
	.section	.rodata._ZTI24LockfreeSingleQueueBasicIjE,"aG",@progbits,_ZTI24LockfreeSingleQueueBasicIjE,comdat
	.align 4
	.type	_ZTI24LockfreeSingleQueueBasicIjE, @object
	.size	_ZTI24LockfreeSingleQueueBasicIjE, 12
_ZTI24LockfreeSingleQueueBasicIjE:
	.long	_ZTVN10__cxxabiv120__si_class_type_infoE+8
	.long	_ZTS24LockfreeSingleQueueBasicIjE
	.long	_ZTI9BaseQueueIjE
	.weak	_ZTS24LockfreeSingleQueueBasicIjE
	.section	.rodata._ZTS24LockfreeSingleQueueBasicIjE,"aG",@progbits,_ZTS24LockfreeSingleQueueBasicIjE,comdat
	.type	_ZTS24LockfreeSingleQueueBasicIjE, @object
	.size	_ZTS24LockfreeSingleQueueBasicIjE, 30
_ZTS24LockfreeSingleQueueBasicIjE:
	.string	"24LockfreeSingleQueueBasicIjE"
	.weak	_ZTV32LockfreeSingleQueueCacheOptLocalIjE
	.section	.rodata._ZTV32LockfreeSingleQueueCacheOptLocalIjE,"aG",@progbits,_ZTV32LockfreeSingleQueueCacheOptLocalIjE,comdat
	.align 8
	.type	_ZTV32LockfreeSingleQueueCacheOptLocalIjE, @object
	.size	_ZTV32LockfreeSingleQueueCacheOptLocalIjE, 28
_ZTV32LockfreeSingleQueueCacheOptLocalIjE:
	.long	0
	.long	_ZTI32LockfreeSingleQueueCacheOptLocalIjE
	.long	_ZN32LockfreeSingleQueueCacheOptLocalIjED1Ev
	.long	_ZN32LockfreeSingleQueueCacheOptLocalIjED0Ev
	.long	_ZN32LockfreeSingleQueueCacheOptLocalIjE4pushEj
	.long	_ZN32LockfreeSingleQueueCacheOptLocalIjE3popEPj
	.long	_ZN9BaseQueueIjE5resetEv
	.weak	_ZTI32LockfreeSingleQueueCacheOptLocalIjE
	.section	.rodata._ZTI32LockfreeSingleQueueCacheOptLocalIjE,"aG",@progbits,_ZTI32LockfreeSingleQueueCacheOptLocalIjE,comdat
	.align 4
	.type	_ZTI32LockfreeSingleQueueCacheOptLocalIjE, @object
	.size	_ZTI32LockfreeSingleQueueCacheOptLocalIjE, 12
_ZTI32LockfreeSingleQueueCacheOptLocalIjE:
	.long	_ZTVN10__cxxabiv120__si_class_type_infoE+8
	.long	_ZTS32LockfreeSingleQueueCacheOptLocalIjE
	.long	_ZTI9BaseQueueIjE
	.weak	_ZTS32LockfreeSingleQueueCacheOptLocalIjE
	.section	.rodata._ZTS32LockfreeSingleQueueCacheOptLocalIjE,"aG",@progbits,_ZTS32LockfreeSingleQueueCacheOptLocalIjE,comdat
	.align 32
	.type	_ZTS32LockfreeSingleQueueCacheOptLocalIjE, @object
	.size	_ZTS32LockfreeSingleQueueCacheOptLocalIjE, 38
_ZTS32LockfreeSingleQueueCacheOptLocalIjE:
	.string	"32LockfreeSingleQueueCacheOptLocalIjE"
	.weak	_ZTV18LockfreeMultiQueueIjE
	.section	.rodata._ZTV18LockfreeMultiQueueIjE,"aG",@progbits,_ZTV18LockfreeMultiQueueIjE,comdat
	.align 8
	.type	_ZTV18LockfreeMultiQueueIjE, @object
	.size	_ZTV18LockfreeMultiQueueIjE, 28
_ZTV18LockfreeMultiQueueIjE:
	.long	0
	.long	_ZTI18LockfreeMultiQueueIjE
	.long	_ZN18LockfreeMultiQueueIjED1Ev
	.long	_ZN18LockfreeMultiQueueIjED0Ev
	.long	_ZN18LockfreeMultiQueueIjE4pushEj
	.long	_ZN18LockfreeMultiQueueIjE3popEPj
	.long	_ZN18LockfreeMultiQueueIjE5resetEv
	.weak	_ZTI18LockfreeMultiQueueIjE
	.section	.rodata._ZTI18LockfreeMultiQueueIjE,"aG",@progbits,_ZTI18LockfreeMultiQueueIjE,comdat
	.align 4
	.type	_ZTI18LockfreeMultiQueueIjE, @object
	.size	_ZTI18LockfreeMultiQueueIjE, 12
_ZTI18LockfreeMultiQueueIjE:
	.long	_ZTVN10__cxxabiv120__si_class_type_infoE+8
	.long	_ZTS18LockfreeMultiQueueIjE
	.long	_ZTI9BaseQueueIjE
	.weak	_ZTS18LockfreeMultiQueueIjE
	.section	.rodata._ZTS18LockfreeMultiQueueIjE,"aG",@progbits,_ZTS18LockfreeMultiQueueIjE,comdat
	.type	_ZTS18LockfreeMultiQueueIjE, @object
	.size	_ZTS18LockfreeMultiQueueIjE, 24
_ZTS18LockfreeMultiQueueIjE:
	.string	"18LockfreeMultiQueueIjE"
	.weakref	_ZL20__gthrw_pthread_oncePiPFvvE,pthread_once
	.weakref	_ZL27__gthrw_pthread_getspecificj,pthread_getspecific
	.weakref	_ZL27__gthrw_pthread_setspecificjPKv,pthread_setspecific
	.weakref	_ZL22__gthrw_pthread_createPmPK14pthread_attr_tPFPvS3_ES3_,pthread_create
	.weakref	_ZL20__gthrw_pthread_joinmPPv,pthread_join
	.weakref	_ZL21__gthrw_pthread_equalmm,pthread_equal
	.weakref	_ZL20__gthrw_pthread_selfv,pthread_self
	.weakref	_ZL22__gthrw_pthread_detachm,pthread_detach
	.weakref	_ZL22__gthrw_pthread_cancelm,pthread_cancel
	.weakref	_ZL19__gthrw_sched_yieldv,sched_yield
	.weakref	_ZL26__gthrw_pthread_mutex_lockP15pthread_mutex_t,pthread_mutex_lock
	.weakref	_ZL29__gthrw_pthread_mutex_trylockP15pthread_mutex_t,pthread_mutex_trylock
	.weakref	_ZL31__gthrw_pthread_mutex_timedlockP15pthread_mutex_tPK8timespec,pthread_mutex_timedlock
	.weakref	_ZL28__gthrw_pthread_mutex_unlockP15pthread_mutex_t,pthread_mutex_unlock
	.weakref	_ZL26__gthrw_pthread_mutex_initP15pthread_mutex_tPK19pthread_mutexattr_t,pthread_mutex_init
	.weakref	_ZL29__gthrw_pthread_mutex_destroyP15pthread_mutex_t,pthread_mutex_destroy
	.weakref	_ZL30__gthrw_pthread_cond_broadcastP14pthread_cond_t,pthread_cond_broadcast
	.weakref	_ZL27__gthrw_pthread_cond_signalP14pthread_cond_t,pthread_cond_signal
	.weakref	_ZL25__gthrw_pthread_cond_waitP14pthread_cond_tP15pthread_mutex_t,pthread_cond_wait
	.weakref	_ZL30__gthrw_pthread_cond_timedwaitP14pthread_cond_tP15pthread_mutex_tPK8timespec,pthread_cond_timedwait
	.weakref	_ZL28__gthrw_pthread_cond_destroyP14pthread_cond_t,pthread_cond_destroy
	.weakref	_ZL26__gthrw_pthread_key_createPjPFvPvE,pthread_key_create
	.weakref	_ZL26__gthrw_pthread_key_deletej,pthread_key_delete
	.weakref	_ZL30__gthrw_pthread_mutexattr_initP19pthread_mutexattr_t,pthread_mutexattr_init
	.weakref	_ZL33__gthrw_pthread_mutexattr_settypeP19pthread_mutexattr_ti,pthread_mutexattr_settype
	.weakref	_ZL33__gthrw_pthread_mutexattr_destroyP19pthread_mutexattr_t,pthread_mutexattr_destroy
	.text
.Letext0:
	.section	.note.GNU-stack,"",@progbits
